
app_demo.elf:     file format elf32-littleriscv
app_demo.elf
architecture: riscv:rv32, flags 0x00000112:
EXEC_P, HAS_SYMS, D_PAGED
start address 0x00010000

Program Header:
    LOAD off    0x00001000 vaddr 0x00010000 paddr 0x00010000 align 2**12
         filesz 0x00005502 memsz 0x0002e610 flags rwx

Sections:
Idx Name                       Size      VMA       LMA       File off  Algn  Flags
  0 .init                      00000078  00010000  00010000  00001000  2**0  CONTENTS, ALLOC, LOAD, READONLY, CODE
  1 .text                      00004ff0  00010078  00010078  00001078  2**2  CONTENTS, ALLOC, LOAD, READONLY, CODE
  2 .sdata2._global_impure_ptr 00000004  00015068  00015068  00006068  2**2  CONTENTS, ALLOC, LOAD, READONLY, DATA
  3 .lalign                    00000000  0001506c  0001506c  00006502  2**0  CONTENTS
  4 .dalign                    00000000  0001506c  0001506c  00006502  2**0  CONTENTS
  5 .data                      00000496  0001506c  0001506c  0000606c  2**2  CONTENTS, ALLOC, LOAD, DATA
  6 .bss                       00000100  00015504  00015504  00006502  2**2  ALLOC
  7 .heap                      00019000  00015604  00015604  00006502  2**0  ALLOC
  8 .stack                     00010000  0002e610  0002e610  00006502  2**4  ALLOC
  9 .debug_info                0000a7c5  00000000  00000000  00006502  2**0  CONTENTS, READONLY, DEBUGGING
 10 .debug_abbrev              00001e78  00000000  00000000  00010cc7  2**0  CONTENTS, READONLY, DEBUGGING
 11 .debug_aranges             00000550  00000000  00000000  00012b40  2**3  CONTENTS, READONLY, DEBUGGING
 12 .debug_ranges              00000430  00000000  00000000  00013090  2**0  CONTENTS, READONLY, DEBUGGING
 13 .debug_line                0000619c  00000000  00000000  000134c0  2**0  CONTENTS, READONLY, DEBUGGING
 14 .debug_str                 00001aa5  00000000  00000000  0001965c  2**0  CONTENTS, READONLY, DEBUGGING
 15 .comment                   00000033  00000000  00000000  0001b101  2**0  CONTENTS, READONLY
 16 .debug_frame               00001c2c  00000000  00000000  0001b134  2**2  CONTENTS, READONLY, DEBUGGING
SYMBOL TABLE:
00010000 l    d  .init	00000000 .init
00010078 l    d  .text	00000000 .text
00015068 l    d  .sdata2._global_impure_ptr	00000000 .sdata2._global_impure_ptr
0001506c l    d  .lalign	00000000 .lalign
0001506c l    d  .dalign	00000000 .dalign
0001506c l    d  .data	00000000 .data
00015504 l    d  .bss	00000000 .bss
00015604 l    d  .heap	00000000 .heap
0002e610 l    d  .stack	00000000 .stack
00000000 l    d  .debug_info	00000000 .debug_info
00000000 l    d  .debug_abbrev	00000000 .debug_abbrev
00000000 l    d  .debug_aranges	00000000 .debug_aranges
00000000 l    d  .debug_ranges	00000000 .debug_ranges
00000000 l    d  .debug_line	00000000 .debug_line
00000000 l    d  .debug_str	00000000 .debug_str
00000000 l    d  .comment	00000000 .comment
00000000 l    d  .debug_frame	00000000 .debug_frame
00000000 l    df *ABS*	00000000 ./src/Bsp/Core/start.o
0001006c l       .init	00000000 mainDone
00000000 l    df *ABS*	00000000 main.c
00000000 l    df *ABS*	00000000 close.c
000100a4 l     F .text	00000024 _stub
00000000 l    df *ABS*	00000000 fstat.c
000100fc l     F .text	00000024 _stub
00000000 l    df *ABS*	00000000 isatty.c
00000000 l    df *ABS*	00000000 lseek.c
000101c0 l     F .text	00000024 _stub
00000000 l    df *ABS*	00000000 read.c
00010238 l     F .text	00000024 _stub
00000000 l    df *ABS*	00000000 sbrk.c
000154e8 l     O .data	00000004 curbrk.1526
00000000 l    df *ABS*	00000000 write.c
00010324 l     F .text	00000024 _stub
00000000 l    df *ABS*	00000000 hme_gpio.c
00010fa0 l     F .text	00000074 PlicGpioHandle
00010ec8 l     F .text	00000068 GpioIntrStateGet
00010f30 l     F .text	00000070 GpioIntrStateClear
00011014 l     F .text	00000094 GpioIntrDispatch
000110a8 l     F .text	00000034 GpioIntrExecute
00000000 l    df *ABS*	00000000 hme_plic.c
00015510 l     O .bss	0000009c astPlicReg
000153b4 l     O .data	000000d0 astDevParam
000110dc l     F .text	00000034 PlicClaimGet
00011110 l     F .text	00000034 PlicFinishNotice
00011ad0 l     F .text	00000030 PlicErrExcute
00000000 l    df *ABS*	00000000 hme_timer.c
00011f18 l     F .text	00000044 PlicMachineTimerHandle
00000000 l    df *ABS*	00000000 hme_uart.c
0001281c l     F .text	00000060 PlicUartHandle
0001287c l     F .text	00000094 UartIntrDispatch
00012910 l     F .text	00000030 UartIntrRecvErr
00012940 l     F .text	00000260 UartIntrRecvExc
00012ba0 l     F .text	00000068 UartIntrRecvTimeOut
00012c08 l     F .text	00000030 UartIntrSendExc
00012c38 l     F .text	00000030 UartIntrModemExc
00000000 l    df *ABS*	00000000 system.c
00000000 l    df *ABS*	00000000 trap_handle.c
00000000 l    df *ABS*	00000000 fflush.c
00000000 l    df *ABS*	00000000 findfp.c
0001363c l     F .text	00000088 std
00000000 l    df *ABS*	00000000 fwalk.c
00000000 l    df *ABS*	00000000 init.c
00000000 l    df *ABS*	00000000 nano-mallocr.c
00000000 l    df *ABS*	00000000 nano-mallocr.c
00000000 l    df *ABS*	00000000 printf.c
00000000 l    df *ABS*	00000000 puts.c
00000000 l    df *ABS*	00000000 sbrkr.c
00000000 l    df *ABS*	00000000 stdio.c
00000000 l    df *ABS*	00000000 sysisatty.c
00000000 l    df *ABS*	00000000 wbuf.c
00000000 l    df *ABS*	00000000 writer.c
00000000 l    df *ABS*	00000000 wsetup.c
00000000 l    df *ABS*	00000000 closer.c
00000000 l    df *ABS*	00000000 lseekr.c
00000000 l    df *ABS*	00000000 makebuf.c
00000000 l    df *ABS*	00000000 mlock.c
00000000 l    df *ABS*	00000000 nano-vfprintf.c
00014560 l     F .text	0000003c __sfputc_r
00000000 l    df *ABS*	00000000 nano-vfprintf_i.c
00000000 l    df *ABS*	00000000 readr.c
00000000 l    df *ABS*	00000000 fstatr.c
00000000 l    df *ABS*	00000000 isattyr.c
00000000 l    df *ABS*	00000000 memchr.c
00000000 l    df *ABS*	00000000 impure.c
00015484 l     O .data	00000060 impure_data
00000000 l    df *ABS*	00000000 reent.c
00000000 l    df *ABS*	00000000 
0001506c l       .sdata2._global_impure_ptr	00000000 __init_array_end
0001506c l       .sdata2._global_impure_ptr	00000000 __preinit_array_end
0001506c l       .sdata2._global_impure_ptr	00000000 __init_array_start
0001506c l       .sdata2._global_impure_ptr	00000000 __preinit_array_start
00014ff8 g     F .text	0000004c _isatty_r
00013d38 g     F .text	00000160 _puts_r
00014388 g     F .text	00000054 _lseek_r
00012724 g     F .text	0000007c UartIntrCfg
000155e8 g     O .bss	00000018 stGpioObj
0001233c g     F .text	0000007c UartTranModeCfg
00011f5c g     F .text	000000e4 UartStructDeInit
00013cbc g     F .text	0000007c printf
000121fc g     F .text	00000090 UartDivAccessClear
00013fcc g     F .text	00000058 __sseek
0001373c g     F .text	000000b4 __sinit
00014030 g     F .text	00000138 __swbuf_r
00011ca4 g     F .text	0000015c MachineTimerCmpAdjuct
000136d0 g     F .text	0000006c __sfmoreglue
0001455c g     F .text	00000004 __malloc_unlock
000124b0 g     F .text	00000074 UartLineStatusGet
000154f0 g     O .data	00000004 imgAddrRd
000154ec g     O .data	00000004 imgAddr
00012684 g     F .text	000000a0 UartByteSend
00013380 g     F .text	00000030 assert_failed
00014fa8 g     F .text	00000050 _fstat_r
00015600 g     O .bss	00000004 errno
00010000 g       *ABS*	00000000 __stack_size
000155ac g     O .bss	00000024 stUartObj
00010b50 g     F .text	000002d8 GpioBitsIntrCfg
000127a0 g     F .text	0000007c UartIntrIDGet
000136c4 g     F .text	0000000c _cleanup_r
00012040 g     F .text	0000012c UartObjConfigInit
00010984 g     F .text	000001cc GpioBitsDebounceCfg
00013e98 g     F .text	00000014 puts
0003e610 g       .stack	00000000 __freertos_irq_stack_top
0001402c g     F .text	00000004 isatty
00010120 g     F .text	0000005c _fstat
00011740 g     F .text	00000028 PlicThresholdGet
00013eac g     F .text	0000004c _sbrk_r
00014f54 g     F .text	00000054 _read_r
00011e90 g     F .text	00000088 MachineTimerCtrllerCmpSet
000130f4 g     F .text	0000028c UartIntrTest
0002e604 g       .heap	00000000 _heap_end
0001017c g     F .text	00000044 _isatty
000116a8 g     F .text	00000024 PlicEnableGet
00015068 g     O .sdata2._global_impure_ptr	00000004 _global_impure_ptr
00013994 g     F .text	000000a4 __libc_init_array
00012f1c g     F .text	00000044 TrapInit
00010298 g     F .text	0000008c _sbrk
000118dc g     F .text	000001f4 ExternalInterruptExcute
00010074 g       .init	00000000 _init
00011230 g     F .text	000000ec DevPriorityOffsetTableGet
0001228c g     F .text	000000b0 UartBaudDivCfg
0001304c g     F .text	00000054 load_image
00015604 g       .heap	00000000 _heap_start
00011658 g     F .text	00000050 PlicEnableSet
00011550 g     F .text	00000108 IntrPriorityGet
00019000 g       *ABS*	00000000 __heap_size
00015318 g     O .data	00000020 __sf_fake_stderr
00012594 g     F .text	00000074 UartModemStatusGet
0001459c g     F .text	00000074 __sfputs_r
00015044 g     F .text	00000024 memchr
00013a54 g     F .text	0000010c _free_r
0003e610 g       .stack	00000000 _sp
00010000 g     F .init	00000000 _start
000101e4 g     F .text	00000054 _lseek
0001216c g     F .text	00000090 UartDivAccessSet
00012434 g     F .text	0000007c UartOscCfg
0001433c g     F .text	0000004c _close_r
00011b8c g     F .text	00000118 MachineTimerObjConfigInit
000106e4 g     F .text	00000078 GpioBitsDoutSet
000141bc g     F .text	00000180 __swsetup_r
000137f0 g     F .text	000000f0 __sfp
00013ef8 g     F .text	00000050 __sread
00014558 g     F .text	00000004 __malloc_lock
00011144 g     F .text	000000ec DevIntrIdTableGet
0001359c g     F .text	000000a0 _fflush_r
00015505 g     O .bss	00000001 rd_flag
00015338 g     O .data	00000020 __sf_fake_stdin
00015504 g       .bss	00000000 __bss_start
00013a38 g     F .text	0000001c memset
00010078 g     F .text	0000002c main
000130a0 g     F .text	00000054 soft_rstn
00012cb8 g       .text	00000000 trap_entry
0001075c g     F .text	00000078 GpioBitsDoutClear
00014024 g     F .text	00000008 __sclose
0001131c g     F .text	000000ec DevIntrEnTableGet
00013b60 g     F .text	0000015c _malloc_r
00012f60 g     F .text	000000ec trap
00011e48 g     F .text	00000048 MachineTimerCtrllerCurTimeHGet
00011e00 g     F .text	00000048 MachineTimerCtrllerCurTimeLGet
00012dfc g     F .text	00000100 TimerInterruptExcute
00013cbc g     F .text	0000007c iprintf
00011408 g     F .text	00000148 IntrPrioritySet
00014168 g     F .text	00000054 _write_r
000149d8 g     F .text	000001b0 _printf_common
000154f4 g     O .data	00000004 _impure_ptr
000133b0 g     F .text	000001ec __sflush_r
00012608 g     F .text	0000007c UartScratchCfg
00011b00 g     F .text	0000008c MachineTimerObjStructDeInit
0001506c g       .dalign	00000000 _data
000107d4 g     F .text	000001b0 GpioBitsPullCfg
00012efc g     F .text	00000020 ExceptionHandleExcute
000143dc g     F .text	0000008c __swhatbuf_r
00010348 g     F .text	000000cc _write
00015504 g       .bss	00000000 _edata
00015608 g       .bss	00000000 _end
000105e4 g     F .text	00000100 GpioBitsDirCfg
0001506c g       .lalign	00000000 _data_lma
00012db8 g     F .text	00000044 SoftwareInterruptExcute
00013f48 g     F .text	00000084 __swrite
00015604 g       .heap	00000000 _heap
00014610 g     F .text	000003c8 _vfiprintf_r
000138e0 g     F .text	000000b4 _fwalk_reent
00015358 g     O .data	00000020 __sf_fake_stdout
0001025c g     F .text	0000003c _read
00011768 g     F .text	00000174 PlicIntrHandleRegister
00010e28 g     F .text	000000a0 GpioBitsIntrDisable
00014468 g     F .text	000000f0 __smakebuf_r
00014b88 g     F .text	000003cc _printf_i
000155d0 g     O .bss	00000018 stTimerObj
0001550c g     O .bss	00000004 __malloc_sbrk_start
00010414 g     F .text	000000bc GpioStructDeInit
00015508 g     O .bss	00000004 __malloc_free_list
00012524 g     F .text	00000070 UartModemCtrlCfg
000123b8 g     F .text	0000007c UartFifoCfg
00014610 g     F .text	000003c8 _vfprintf_r
00012c68 g     F .text	00000050 DelayUs
000116cc g     F .text	00000074 PlicThresholdSet
000104d0 g     F .text	00000114 GpioObjConfigInit
00015504 g     O .bss	00000001 wr_flag
000100c8 g     F .text	00000034 _close



Disassembly of section .init:

00010000 <_start>:
_start():
D:\CreateIC\01_CPIPC\riscv\RISCV_ENC_20220421\Firmware_true\app_prj\app_demo\Debug/../src/Bsp/Core/start.S:12
.option push
.option norelax
	la gp, __global_pointer$
.option pop
#endif
	la sp, _sp
   10000:	0002e117          	auipc	sp,0x2e
   10004:	61010113          	addi	sp,sp,1552 # 3e610 <__freertos_irq_stack_top>
D:\CreateIC\01_CPIPC\riscv\RISCV_ENC_20220421\Firmware_true\app_prj\app_demo\Debug/../src/Bsp/Core/start.S:15

	/* Load data section */
	la a0, _data_lma
   10008:	00005517          	auipc	a0,0x5
   1000c:	06450513          	addi	a0,a0,100 # 1506c <__init_array_end>
D:\CreateIC\01_CPIPC\riscv\RISCV_ENC_20220421\Firmware_true\app_prj\app_demo\Debug/../src/Bsp/Core/start.S:16
	la a1, _data
   10010:	00005597          	auipc	a1,0x5
   10014:	05c58593          	addi	a1,a1,92 # 1506c <__init_array_end>
D:\CreateIC\01_CPIPC\riscv\RISCV_ENC_20220421\Firmware_true\app_prj\app_demo\Debug/../src/Bsp/Core/start.S:17
	la a2, _edata
   10018:	00005617          	auipc	a2,0x5
   1001c:	4ec60613          	addi	a2,a2,1260 # 15504 <wr_flag>
D:\CreateIC\01_CPIPC\riscv\RISCV_ENC_20220421\Firmware_true\app_prj\app_demo\Debug/../src/Bsp/Core/start.S:18
	bgeu a1, a2, 2f
   10020:	00c5fc63          	bgeu	a1,a2,10038 <_start+0x38>
D:\CreateIC\01_CPIPC\riscv\RISCV_ENC_20220421\Firmware_true\app_prj\app_demo\Debug/../src/Bsp/Core/start.S:20
1:
	lw t0, (a0)
   10024:	00052283          	lw	t0,0(a0)
D:\CreateIC\01_CPIPC\riscv\RISCV_ENC_20220421\Firmware_true\app_prj\app_demo\Debug/../src/Bsp/Core/start.S:21
	sw t0, (a1)
   10028:	0055a023          	sw	t0,0(a1)
D:\CreateIC\01_CPIPC\riscv\RISCV_ENC_20220421\Firmware_true\app_prj\app_demo\Debug/../src/Bsp/Core/start.S:22
	addi a0, a0, 4
   1002c:	00450513          	addi	a0,a0,4
D:\CreateIC\01_CPIPC\riscv\RISCV_ENC_20220421\Firmware_true\app_prj\app_demo\Debug/../src/Bsp/Core/start.S:23
	addi a1, a1, 4
   10030:	00458593          	addi	a1,a1,4
D:\CreateIC\01_CPIPC\riscv\RISCV_ENC_20220421\Firmware_true\app_prj\app_demo\Debug/../src/Bsp/Core/start.S:24
	bltu a1, a2, 1b
   10034:	fec5e8e3          	bltu	a1,a2,10024 <_start+0x24>
D:\CreateIC\01_CPIPC\riscv\RISCV_ENC_20220421\Firmware_true\app_prj\app_demo\Debug/../src/Bsp/Core/start.S:28
2:

	/* Clear bss section */
	la a0, __bss_start
   10038:	00005517          	auipc	a0,0x5
   1003c:	4cc50513          	addi	a0,a0,1228 # 15504 <wr_flag>
D:\CreateIC\01_CPIPC\riscv\RISCV_ENC_20220421\Firmware_true\app_prj\app_demo\Debug/../src/Bsp/Core/start.S:29
	la a1, _end
   10040:	00005597          	auipc	a1,0x5
   10044:	5c858593          	addi	a1,a1,1480 # 15608 <_end>
D:\CreateIC\01_CPIPC\riscv\RISCV_ENC_20220421\Firmware_true\app_prj\app_demo\Debug/../src/Bsp/Core/start.S:30
	bgeu a0, a1, 2f
   10048:	00b57863          	bgeu	a0,a1,10058 <_start+0x58>
D:\CreateIC\01_CPIPC\riscv\RISCV_ENC_20220421\Firmware_true\app_prj\app_demo\Debug/../src/Bsp/Core/start.S:32
1:
	sw zero, (a0)
   1004c:	00052023          	sw	zero,0(a0)
D:\CreateIC\01_CPIPC\riscv\RISCV_ENC_20220421\Firmware_true\app_prj\app_demo\Debug/../src/Bsp/Core/start.S:33
	addi a0, a0, 4
   10050:	00450513          	addi	a0,a0,4
D:\CreateIC\01_CPIPC\riscv\RISCV_ENC_20220421\Firmware_true\app_prj\app_demo\Debug/../src/Bsp/Core/start.S:34
	bltu a0, a1, 1b
   10054:	feb56ce3          	bltu	a0,a1,1004c <_start+0x4c>
D:\CreateIC\01_CPIPC\riscv\RISCV_ENC_20220421\Firmware_true\app_prj\app_demo\Debug/../src/Bsp/Core/start.S:36
2:
	la t0, trap_entry
   10058:	00003297          	auipc	t0,0x3
   1005c:	c6028293          	addi	t0,t0,-928 # 12cb8 <trap_entry>
D:\CreateIC\01_CPIPC\riscv\RISCV_ENC_20220421\Firmware_true\app_prj\app_demo\Debug/../src/Bsp/Core/start.S:37
	csrw mtvec, t0
   10060:	30529073          	csrw	mtvec,t0
D:\CreateIC\01_CPIPC\riscv\RISCV_ENC_20220421\Firmware_true\app_prj\app_demo\Debug/../src/Bsp/Core/start.S:39

	call __libc_init_array
   10064:	131030ef          	jal	ra,13994 <__libc_init_array>
D:\CreateIC\01_CPIPC\riscv\RISCV_ENC_20220421\Firmware_true\app_prj\app_demo\Debug/../src/Bsp/Core/start.S:40
	call main
   10068:	010000ef          	jal	ra,10078 <main>

0001006c <mainDone>:
mainDone():
D:\CreateIC\01_CPIPC\riscv\RISCV_ENC_20220421\Firmware_true\app_prj\app_demo\Debug/../src/Bsp/Core/start.S:42
mainDone:
    j mainDone
   1006c:	0000006f          	j	1006c <mainDone>
D:\CreateIC\01_CPIPC\riscv\RISCV_ENC_20220421\Firmware_true\app_prj\app_demo\Debug/../src/Bsp/Core/start.S:46

    .weak trap_entry
trap_entry:
 1:	j 1b
   10070:	0000006f          	j	10070 <mainDone+0x4>

00010074 <_init>:
_init():
D:\CreateIC\01_CPIPC\riscv\RISCV_ENC_20220421\Firmware_true\app_prj\app_demo\Debug/../src/Bsp/Core/start.S:50

 	.globl _init
_init:
    ret
   10074:	00008067          	ret

Disassembly of section .text:

00010078 <main>:
main():
D:\CreateIC\01_CPIPC\riscv\RISCV_ENC_20220421\Firmware_true\app_prj\app_demo\Debug/../src/main.c:63
    DelayUs(10);
    GpioBitsDoutClear(&stGpioObj);
}

int main(void)
{
   10078:	ff010113          	addi	sp,sp,-16
   1007c:	00112623          	sw	ra,12(sp)
   10080:	00812423          	sw	s0,8(sp)
   10084:	01010413          	addi	s0,sp,16
D:\CreateIC\01_CPIPC\riscv\RISCV_ENC_20220421\Firmware_true\app_prj\app_demo\Debug/../src/main.c:67
//	MainTest();


	UartIntrTest();
   10088:	06c030ef          	jal	ra,130f4 <UartIntrTest>
   1008c:	00000793          	li	a5,0
D:\CreateIC\01_CPIPC\riscv\RISCV_ENC_20220421\Firmware_true\app_prj\app_demo\Debug/../src/main.c:70


}
   10090:	00078513          	mv	a0,a5
   10094:	00c12083          	lw	ra,12(sp)
   10098:	00812403          	lw	s0,8(sp)
   1009c:	01010113          	addi	sp,sp,16
   100a0:	00008067          	ret

000100a4 <_stub>:
_stub():
D:\CreateIC\01_CPIPC\riscv\RISCV_ENC_20220421\Firmware_true\app_prj\app_demo\Debug/../src/Bsp/libwrap/sys/stub.h:6
/* See LICENSE of license details. */
#ifndef _SIFIVE_SYS_STUB_H
#define _SIFIVE_SYS_STUB_H

static inline int _stub(int err)
{
   100a4:	fe010113          	addi	sp,sp,-32
   100a8:	00812e23          	sw	s0,28(sp)
   100ac:	02010413          	addi	s0,sp,32
   100b0:	fea42623          	sw	a0,-20(s0)
D:\CreateIC\01_CPIPC\riscv\RISCV_ENC_20220421\Firmware_true\app_prj\app_demo\Debug/../src/Bsp/libwrap/sys/stub.h:7
  return -1;
   100b4:	fff00793          	li	a5,-1
D:\CreateIC\01_CPIPC\riscv\RISCV_ENC_20220421\Firmware_true\app_prj\app_demo\Debug/../src/Bsp/libwrap/sys/stub.h:8
}
   100b8:	00078513          	mv	a0,a5
   100bc:	01c12403          	lw	s0,28(sp)
   100c0:	02010113          	addi	sp,sp,32
   100c4:	00008067          	ret

000100c8 <_close>:
_close():
D:\CreateIC\01_CPIPC\riscv\RISCV_ENC_20220421\Firmware_true\app_prj\app_demo\Debug/../src/Bsp/libwrap/sys/close.c:7

#include <errno.h>
#include "stub.h"

int _close(int fd)
{
   100c8:	fe010113          	addi	sp,sp,-32
   100cc:	00112e23          	sw	ra,28(sp)
   100d0:	00812c23          	sw	s0,24(sp)
   100d4:	02010413          	addi	s0,sp,32
   100d8:	fea42623          	sw	a0,-20(s0)
D:\CreateIC\01_CPIPC\riscv\RISCV_ENC_20220421\Firmware_true\app_prj\app_demo\Debug/../src/Bsp/libwrap/sys/close.c:8
  return _stub(EBADF);
   100dc:	00900513          	li	a0,9
   100e0:	fc5ff0ef          	jal	ra,100a4 <_stub>
   100e4:	00050793          	mv	a5,a0
D:\CreateIC\01_CPIPC\riscv\RISCV_ENC_20220421\Firmware_true\app_prj\app_demo\Debug/../src/Bsp/libwrap/sys/close.c:9
}
   100e8:	00078513          	mv	a0,a5
   100ec:	01c12083          	lw	ra,28(sp)
   100f0:	01812403          	lw	s0,24(sp)
   100f4:	02010113          	addi	sp,sp,32
   100f8:	00008067          	ret

000100fc <_stub>:
_stub():
D:\CreateIC\01_CPIPC\riscv\RISCV_ENC_20220421\Firmware_true\app_prj\app_demo\Debug/../src/Bsp/libwrap/sys/stub.h:6
{
   100fc:	fe010113          	addi	sp,sp,-32
   10100:	00812e23          	sw	s0,28(sp)
   10104:	02010413          	addi	s0,sp,32
   10108:	fea42623          	sw	a0,-20(s0)
D:\CreateIC\01_CPIPC\riscv\RISCV_ENC_20220421\Firmware_true\app_prj\app_demo\Debug/../src/Bsp/libwrap/sys/stub.h:7
  return -1;
   1010c:	fff00793          	li	a5,-1
D:\CreateIC\01_CPIPC\riscv\RISCV_ENC_20220421\Firmware_true\app_prj\app_demo\Debug/../src/Bsp/libwrap/sys/stub.h:8
}
   10110:	00078513          	mv	a0,a5
   10114:	01c12403          	lw	s0,28(sp)
   10118:	02010113          	addi	sp,sp,32
   1011c:	00008067          	ret

00010120 <_fstat>:
_fstat():
D:\CreateIC\01_CPIPC\riscv\RISCV_ENC_20220421\Firmware_true\app_prj\app_demo\Debug/../src/Bsp/libwrap/sys/fstat.c:9
#include <unistd.h>
#include <sys/stat.h>
#include "stub.h"

int _fstat(int fd, struct stat* st)
{
   10120:	fe010113          	addi	sp,sp,-32
   10124:	00112e23          	sw	ra,28(sp)
   10128:	00812c23          	sw	s0,24(sp)
   1012c:	02010413          	addi	s0,sp,32
   10130:	fea42623          	sw	a0,-20(s0)
   10134:	feb42423          	sw	a1,-24(s0)
D:\CreateIC\01_CPIPC\riscv\RISCV_ENC_20220421\Firmware_true\app_prj\app_demo\Debug/../src/Bsp/libwrap/sys/fstat.c:10
  if (isatty(fd)) {
   10138:	fec42503          	lw	a0,-20(s0)
   1013c:	6f1030ef          	jal	ra,1402c <isatty>
   10140:	00050793          	mv	a5,a0
   10144:	00078c63          	beqz	a5,1015c <_fstat+0x3c>
D:\CreateIC\01_CPIPC\riscv\RISCV_ENC_20220421\Firmware_true\app_prj\app_demo\Debug/../src/Bsp/libwrap/sys/fstat.c:11
    st->st_mode = S_IFCHR;
   10148:	fe842783          	lw	a5,-24(s0)
   1014c:	00002737          	lui	a4,0x2
   10150:	00e7a223          	sw	a4,4(a5)
D:\CreateIC\01_CPIPC\riscv\RISCV_ENC_20220421\Firmware_true\app_prj\app_demo\Debug/../src/Bsp/libwrap/sys/fstat.c:12
    return 0;
   10154:	00000793          	li	a5,0
   10158:	0100006f          	j	10168 <_fstat+0x48>
D:\CreateIC\01_CPIPC\riscv\RISCV_ENC_20220421\Firmware_true\app_prj\app_demo\Debug/../src/Bsp/libwrap/sys/fstat.c:15
  }

  return _stub(EBADF);
   1015c:	00900513          	li	a0,9
   10160:	f9dff0ef          	jal	ra,100fc <_stub>
   10164:	00050793          	mv	a5,a0
D:\CreateIC\01_CPIPC\riscv\RISCV_ENC_20220421\Firmware_true\app_prj\app_demo\Debug/../src/Bsp/libwrap/sys/fstat.c:16
}
   10168:	00078513          	mv	a0,a5
   1016c:	01c12083          	lw	ra,28(sp)
   10170:	01812403          	lw	s0,24(sp)
   10174:	02010113          	addi	sp,sp,32
   10178:	00008067          	ret

0001017c <_isatty>:
_isatty():
D:\CreateIC\01_CPIPC\riscv\RISCV_ENC_20220421\Firmware_true\app_prj\app_demo\Debug/../src/Bsp/libwrap/sys/isatty.c:6
/* See LICENSE of license details. */

#include <unistd.h>

int _isatty(int fd)
{
   1017c:	fe010113          	addi	sp,sp,-32
   10180:	00812e23          	sw	s0,28(sp)
   10184:	02010413          	addi	s0,sp,32
   10188:	fea42623          	sw	a0,-20(s0)
D:\CreateIC\01_CPIPC\riscv\RISCV_ENC_20220421\Firmware_true\app_prj\app_demo\Debug/../src/Bsp/libwrap/sys/isatty.c:7
  if (fd == STDOUT_FILENO || fd == STDERR_FILENO)
   1018c:	fec42703          	lw	a4,-20(s0)
   10190:	00100793          	li	a5,1
   10194:	00f70863          	beq	a4,a5,101a4 <_isatty+0x28>
D:\CreateIC\01_CPIPC\riscv\RISCV_ENC_20220421\Firmware_true\app_prj\app_demo\Debug/../src/Bsp/libwrap/sys/isatty.c:7 (discriminator 1)
   10198:	fec42703          	lw	a4,-20(s0)
   1019c:	00200793          	li	a5,2
   101a0:	00f71663          	bne	a4,a5,101ac <_isatty+0x30>
D:\CreateIC\01_CPIPC\riscv\RISCV_ENC_20220421\Firmware_true\app_prj\app_demo\Debug/../src/Bsp/libwrap/sys/isatty.c:8
    return 1;
   101a4:	00100793          	li	a5,1
   101a8:	0080006f          	j	101b0 <_isatty+0x34>
D:\CreateIC\01_CPIPC\riscv\RISCV_ENC_20220421\Firmware_true\app_prj\app_demo\Debug/../src/Bsp/libwrap/sys/isatty.c:10

  return 0;
   101ac:	00000793          	li	a5,0
D:\CreateIC\01_CPIPC\riscv\RISCV_ENC_20220421\Firmware_true\app_prj\app_demo\Debug/../src/Bsp/libwrap/sys/isatty.c:11
}
   101b0:	00078513          	mv	a0,a5
   101b4:	01c12403          	lw	s0,28(sp)
   101b8:	02010113          	addi	sp,sp,32
   101bc:	00008067          	ret

000101c0 <_stub>:
_stub():
D:\CreateIC\01_CPIPC\riscv\RISCV_ENC_20220421\Firmware_true\app_prj\app_demo\Debug/../src/Bsp/libwrap/sys/stub.h:6
{
   101c0:	fe010113          	addi	sp,sp,-32
   101c4:	00812e23          	sw	s0,28(sp)
   101c8:	02010413          	addi	s0,sp,32
   101cc:	fea42623          	sw	a0,-20(s0)
D:\CreateIC\01_CPIPC\riscv\RISCV_ENC_20220421\Firmware_true\app_prj\app_demo\Debug/../src/Bsp/libwrap/sys/stub.h:7
  return -1;
   101d0:	fff00793          	li	a5,-1
D:\CreateIC\01_CPIPC\riscv\RISCV_ENC_20220421\Firmware_true\app_prj\app_demo\Debug/../src/Bsp/libwrap/sys/stub.h:8
}
   101d4:	00078513          	mv	a0,a5
   101d8:	01c12403          	lw	s0,28(sp)
   101dc:	02010113          	addi	sp,sp,32
   101e0:	00008067          	ret

000101e4 <_lseek>:
_lseek():
D:\CreateIC\01_CPIPC\riscv\RISCV_ENC_20220421\Firmware_true\app_prj\app_demo\Debug/../src/Bsp/libwrap/sys/lseek.c:9
#include <unistd.h>
#include <sys/types.h>
#include "stub.h"

off_t _lseek(int fd, off_t ptr, int dir)
{
   101e4:	fe010113          	addi	sp,sp,-32
   101e8:	00112e23          	sw	ra,28(sp)
   101ec:	00812c23          	sw	s0,24(sp)
   101f0:	02010413          	addi	s0,sp,32
   101f4:	fea42623          	sw	a0,-20(s0)
   101f8:	feb42423          	sw	a1,-24(s0)
   101fc:	fec42223          	sw	a2,-28(s0)
D:\CreateIC\01_CPIPC\riscv\RISCV_ENC_20220421\Firmware_true\app_prj\app_demo\Debug/../src/Bsp/libwrap/sys/lseek.c:10
  if (isatty(fd))
   10200:	fec42503          	lw	a0,-20(s0)
   10204:	629030ef          	jal	ra,1402c <isatty>
   10208:	00050793          	mv	a5,a0
   1020c:	00078663          	beqz	a5,10218 <_lseek+0x34>
D:\CreateIC\01_CPIPC\riscv\RISCV_ENC_20220421\Firmware_true\app_prj\app_demo\Debug/../src/Bsp/libwrap/sys/lseek.c:11
    return 0;
   10210:	00000793          	li	a5,0
   10214:	0100006f          	j	10224 <_lseek+0x40>
D:\CreateIC\01_CPIPC\riscv\RISCV_ENC_20220421\Firmware_true\app_prj\app_demo\Debug/../src/Bsp/libwrap/sys/lseek.c:13

  return _stub(EBADF);
   10218:	00900513          	li	a0,9
   1021c:	fa5ff0ef          	jal	ra,101c0 <_stub>
   10220:	00050793          	mv	a5,a0
D:\CreateIC\01_CPIPC\riscv\RISCV_ENC_20220421\Firmware_true\app_prj\app_demo\Debug/../src/Bsp/libwrap/sys/lseek.c:14
}
   10224:	00078513          	mv	a0,a5
   10228:	01c12083          	lw	ra,28(sp)
   1022c:	01812403          	lw	s0,24(sp)
   10230:	02010113          	addi	sp,sp,32
   10234:	00008067          	ret

00010238 <_stub>:
_stub():
D:\CreateIC\01_CPIPC\riscv\RISCV_ENC_20220421\Firmware_true\app_prj\app_demo\Debug/../src/Bsp/libwrap/sys/stub.h:6
{
   10238:	fe010113          	addi	sp,sp,-32
   1023c:	00812e23          	sw	s0,28(sp)
   10240:	02010413          	addi	s0,sp,32
   10244:	fea42623          	sw	a0,-20(s0)
D:\CreateIC\01_CPIPC\riscv\RISCV_ENC_20220421\Firmware_true\app_prj\app_demo\Debug/../src/Bsp/libwrap/sys/stub.h:7
  return -1;
   10248:	fff00793          	li	a5,-1
D:\CreateIC\01_CPIPC\riscv\RISCV_ENC_20220421\Firmware_true\app_prj\app_demo\Debug/../src/Bsp/libwrap/sys/stub.h:8
}
   1024c:	00078513          	mv	a0,a5
   10250:	01c12403          	lw	s0,28(sp)
   10254:	02010113          	addi	sp,sp,32
   10258:	00008067          	ret

0001025c <_read>:
_read():
D:\CreateIC\01_CPIPC\riscv\RISCV_ENC_20220421\Firmware_true\app_prj\app_demo\Debug/../src/Bsp/libwrap/sys/read.c:12

#include "platform.h"
#include "stub.h"

ssize_t _read(int fd, void* ptr, size_t len)
{
   1025c:	fe010113          	addi	sp,sp,-32
   10260:	00112e23          	sw	ra,28(sp)
   10264:	00812c23          	sw	s0,24(sp)
   10268:	02010413          	addi	s0,sp,32
   1026c:	fea42623          	sw	a0,-20(s0)
   10270:	feb42423          	sw	a1,-24(s0)
   10274:	fec42223          	sw	a2,-28(s0)
D:\CreateIC\01_CPIPC\riscv\RISCV_ENC_20220421\Firmware_true\app_prj\app_demo\Debug/../src/Bsp/libwrap/sys/read.c:31
  //    result++;
  //  }
  //  return result;
  //}

  return _stub(EBADF);
   10278:	00900513          	li	a0,9
   1027c:	fbdff0ef          	jal	ra,10238 <_stub>
   10280:	00050793          	mv	a5,a0
D:\CreateIC\01_CPIPC\riscv\RISCV_ENC_20220421\Firmware_true\app_prj\app_demo\Debug/../src/Bsp/libwrap/sys/read.c:32
}
   10284:	00078513          	mv	a0,a5
   10288:	01c12083          	lw	ra,28(sp)
   1028c:	01812403          	lw	s0,24(sp)
   10290:	02010113          	addi	sp,sp,32
   10294:	00008067          	ret

00010298 <_sbrk>:
_sbrk():
D:\CreateIC\01_CPIPC\riscv\RISCV_ENC_20220421\Firmware_true\app_prj\app_demo\Debug/../src/Bsp/libwrap/sys/sbrk.c:6
/* See LICENSE of license details. */

#include <stddef.h>

void *_sbrk(ptrdiff_t incr)
{
   10298:	fe010113          	addi	sp,sp,-32
   1029c:	00812e23          	sw	s0,28(sp)
   102a0:	02010413          	addi	s0,sp,32
   102a4:	fea42623          	sw	a0,-20(s0)
D:\CreateIC\01_CPIPC\riscv\RISCV_ENC_20220421\Firmware_true\app_prj\app_demo\Debug/../src/Bsp/libwrap/sys/sbrk.c:12
  extern char _end[];
  extern char _heap_end[];

  static char *curbrk = _end;

  if ((curbrk + incr < _end) || (curbrk + incr > _heap_end))
   102a8:	000157b7          	lui	a5,0x15
   102ac:	4e87a703          	lw	a4,1256(a5) # 154e8 <curbrk.1526>
   102b0:	fec42783          	lw	a5,-20(s0)
   102b4:	00f70733          	add	a4,a4,a5
   102b8:	000157b7          	lui	a5,0x15
   102bc:	60878793          	addi	a5,a5,1544 # 15608 <_end>
   102c0:	02f76063          	bltu	a4,a5,102e0 <_sbrk+0x48>
D:\CreateIC\01_CPIPC\riscv\RISCV_ENC_20220421\Firmware_true\app_prj\app_demo\Debug/../src/Bsp/libwrap/sys/sbrk.c:12 (discriminator 1)
   102c4:	000157b7          	lui	a5,0x15
   102c8:	4e87a703          	lw	a4,1256(a5) # 154e8 <curbrk.1526>
   102cc:	fec42783          	lw	a5,-20(s0)
   102d0:	00f70733          	add	a4,a4,a5
   102d4:	0002e7b7          	lui	a5,0x2e
   102d8:	60478793          	addi	a5,a5,1540 # 2e604 <_heap_end>
   102dc:	00e7f663          	bgeu	a5,a4,102e8 <_sbrk+0x50>
D:\CreateIC\01_CPIPC\riscv\RISCV_ENC_20220421\Firmware_true\app_prj\app_demo\Debug/../src/Bsp/libwrap/sys/sbrk.c:14
  {
     return NULL - 1;
   102e0:	fff00793          	li	a5,-1
   102e4:	0300006f          	j	10314 <_sbrk+0x7c>
D:\CreateIC\01_CPIPC\riscv\RISCV_ENC_20220421\Firmware_true\app_prj\app_demo\Debug/../src/Bsp/libwrap/sys/sbrk.c:17
  }

  curbrk += incr;
   102e8:	000157b7          	lui	a5,0x15
   102ec:	4e87a703          	lw	a4,1256(a5) # 154e8 <curbrk.1526>
   102f0:	fec42783          	lw	a5,-20(s0)
   102f4:	00f70733          	add	a4,a4,a5
   102f8:	000157b7          	lui	a5,0x15
   102fc:	4ee7a423          	sw	a4,1256(a5) # 154e8 <curbrk.1526>
D:\CreateIC\01_CPIPC\riscv\RISCV_ENC_20220421\Firmware_true\app_prj\app_demo\Debug/../src/Bsp/libwrap/sys/sbrk.c:18
  return curbrk - incr;
   10300:	000157b7          	lui	a5,0x15
   10304:	4e87a703          	lw	a4,1256(a5) # 154e8 <curbrk.1526>
   10308:	fec42783          	lw	a5,-20(s0)
   1030c:	40f007b3          	neg	a5,a5
   10310:	00f707b3          	add	a5,a4,a5
D:\CreateIC\01_CPIPC\riscv\RISCV_ENC_20220421\Firmware_true\app_prj\app_demo\Debug/../src/Bsp/libwrap/sys/sbrk.c:19
}
   10314:	00078513          	mv	a0,a5
   10318:	01c12403          	lw	s0,28(sp)
   1031c:	02010113          	addi	sp,sp,32
   10320:	00008067          	ret

00010324 <_stub>:
_stub():
D:\CreateIC\01_CPIPC\riscv\RISCV_ENC_20220421\Firmware_true\app_prj\app_demo\Debug/../src/Bsp/libwrap/sys/stub.h:6
{
   10324:	fe010113          	addi	sp,sp,-32
   10328:	00812e23          	sw	s0,28(sp)
   1032c:	02010413          	addi	s0,sp,32
   10330:	fea42623          	sw	a0,-20(s0)
D:\CreateIC\01_CPIPC\riscv\RISCV_ENC_20220421\Firmware_true\app_prj\app_demo\Debug/../src/Bsp/libwrap/sys/stub.h:7
  return -1;
   10334:	fff00793          	li	a5,-1
D:\CreateIC\01_CPIPC\riscv\RISCV_ENC_20220421\Firmware_true\app_prj\app_demo\Debug/../src/Bsp/libwrap/sys/stub.h:8
}
   10338:	00078513          	mv	a0,a5
   1033c:	01c12403          	lw	s0,28(sp)
   10340:	02010113          	addi	sp,sp,32
   10344:	00008067          	ret

00010348 <_write>:
_write():
D:\CreateIC\01_CPIPC\riscv\RISCV_ENC_20220421\Firmware_true\app_prj\app_demo\Debug/../src/Bsp/libwrap/sys/write.c:14
#include "stub.h"

extern ST_UART_ATTR  stUartObj;

ssize_t _write(int fd, const void* ptr, size_t len)
{
   10348:	fd010113          	addi	sp,sp,-48
   1034c:	02112623          	sw	ra,44(sp)
   10350:	02812423          	sw	s0,40(sp)
   10354:	03010413          	addi	s0,sp,48
   10358:	fca42e23          	sw	a0,-36(s0)
   1035c:	fcb42c23          	sw	a1,-40(s0)
   10360:	fcc42a23          	sw	a2,-44(s0)
D:\CreateIC\01_CPIPC\riscv\RISCV_ENC_20220421\Firmware_true\app_prj\app_demo\Debug/../src/Bsp/libwrap/sys/write.c:15
  const uint8_t * current = (const char *)ptr;
   10364:	fd842783          	lw	a5,-40(s0)
   10368:	fef42423          	sw	a5,-24(s0)
D:\CreateIC\01_CPIPC\riscv\RISCV_ENC_20220421\Firmware_true\app_prj\app_demo\Debug/../src/Bsp/libwrap/sys/write.c:16
  uint32_t Data_len = len;
   1036c:	fd442783          	lw	a5,-44(s0)
   10370:	fef42223          	sw	a5,-28(s0)
D:\CreateIC\01_CPIPC\riscv\RISCV_ENC_20220421\Firmware_true\app_prj\app_demo\Debug/../src/Bsp/libwrap/sys/write.c:18

  if (isatty(fd))
   10374:	fdc42503          	lw	a0,-36(s0)
   10378:	4b5030ef          	jal	ra,1402c <isatty>
   1037c:	00050793          	mv	a5,a0
   10380:	06078a63          	beqz	a5,103f4 <_write+0xac>
D:\CreateIC\01_CPIPC\riscv\RISCV_ENC_20220421\Firmware_true\app_prj\app_demo\Debug/../src/Bsp/libwrap/sys/write.c:20
  {
    for (size_t jj = 0; jj < len; jj++)
   10384:	fe042623          	sw	zero,-20(s0)
   10388:	0580006f          	j	103e0 <_write+0x98>
D:\CreateIC\01_CPIPC\riscv\RISCV_ENC_20220421\Firmware_true\app_prj\app_demo\Debug/../src/Bsp/libwrap/sys/write.c:22
    {
    	  UartByteSend(&stUartObj, current[jj]);
   1038c:	fe842703          	lw	a4,-24(s0)
   10390:	fec42783          	lw	a5,-20(s0)
   10394:	00f707b3          	add	a5,a4,a5
   10398:	0007c783          	lbu	a5,0(a5)
   1039c:	00078593          	mv	a1,a5
   103a0:	000157b7          	lui	a5,0x15
   103a4:	5ac78513          	addi	a0,a5,1452 # 155ac <stUartObj>
   103a8:	2dc020ef          	jal	ra,12684 <UartByteSend>
D:\CreateIC\01_CPIPC\riscv\RISCV_ENC_20220421\Firmware_true\app_prj\app_demo\Debug/../src/Bsp/libwrap/sys/write.c:23
          if (current[jj] == '\n')
   103ac:	fe842703          	lw	a4,-24(s0)
   103b0:	fec42783          	lw	a5,-20(s0)
   103b4:	00f707b3          	add	a5,a4,a5
   103b8:	0007c703          	lbu	a4,0(a5)
   103bc:	00a00793          	li	a5,10
   103c0:	00f71a63          	bne	a4,a5,103d4 <_write+0x8c>
D:\CreateIC\01_CPIPC\riscv\RISCV_ENC_20220421\Firmware_true\app_prj\app_demo\Debug/../src/Bsp/libwrap/sys/write.c:25
          {
    	      UartByteSend(&stUartObj, '\r');
   103c4:	00d00593          	li	a1,13
   103c8:	000157b7          	lui	a5,0x15
   103cc:	5ac78513          	addi	a0,a5,1452 # 155ac <stUartObj>
   103d0:	2b4020ef          	jal	ra,12684 <UartByteSend>
D:\CreateIC\01_CPIPC\riscv\RISCV_ENC_20220421\Firmware_true\app_prj\app_demo\Debug/../src/Bsp/libwrap/sys/write.c:20 (discriminator 2)
    for (size_t jj = 0; jj < len; jj++)
   103d4:	fec42783          	lw	a5,-20(s0)
   103d8:	00178793          	addi	a5,a5,1
   103dc:	fef42623          	sw	a5,-20(s0)
D:\CreateIC\01_CPIPC\riscv\RISCV_ENC_20220421\Firmware_true\app_prj\app_demo\Debug/../src/Bsp/libwrap/sys/write.c:20 (discriminator 1)
   103e0:	fec42703          	lw	a4,-20(s0)
   103e4:	fd442783          	lw	a5,-44(s0)
   103e8:	faf762e3          	bltu	a4,a5,1038c <_write+0x44>
D:\CreateIC\01_CPIPC\riscv\RISCV_ENC_20220421\Firmware_true\app_prj\app_demo\Debug/../src/Bsp/libwrap/sys/write.c:28
          }
    }
    return len;
   103ec:	fd442783          	lw	a5,-44(s0)
   103f0:	0100006f          	j	10400 <_write+0xb8>
D:\CreateIC\01_CPIPC\riscv\RISCV_ENC_20220421\Firmware_true\app_prj\app_demo\Debug/../src/Bsp/libwrap/sys/write.c:31
  }

  return _stub(EBADF);
   103f4:	00900513          	li	a0,9
   103f8:	f2dff0ef          	jal	ra,10324 <_stub>
   103fc:	00050793          	mv	a5,a0
D:\CreateIC\01_CPIPC\riscv\RISCV_ENC_20220421\Firmware_true\app_prj\app_demo\Debug/../src/Bsp/libwrap/sys/write.c:32
}
   10400:	00078513          	mv	a0,a5
   10404:	02c12083          	lw	ra,44(sp)
   10408:	02812403          	lw	s0,40(sp)
   1040c:	03010113          	addi	sp,sp,48
   10410:	00008067          	ret

00010414 <GpioStructDeInit>:
GpioStructDeInit():
D:\CreateIC\01_CPIPC\riscv\RISCV_ENC_20220421\Firmware_true\app_prj\app_demo\Debug/../src/Bsp/Driver/hme_gpio.c:35
  * @brief  GPIO结构体默认初始化
  * @param  pstGpioObj:GPIO设备对象
  * @retval 无
*****************************************************************/
void GpioStructDeInit(PST_GPIO_ATTR pstGpioObj)
{
   10414:	fe010113          	addi	sp,sp,-32
   10418:	00112e23          	sw	ra,28(sp)
   1041c:	00812c23          	sw	s0,24(sp)
   10420:	02010413          	addi	s0,sp,32
   10424:	fea42623          	sw	a0,-20(s0)
D:\CreateIC\01_CPIPC\riscv\RISCV_ENC_20220421\Firmware_true\app_prj\app_demo\Debug/../src/Bsp/Driver/hme_gpio.c:36
	assert_param(NULL != pstGpioObj);
   10428:	fec42783          	lw	a5,-20(s0)
   1042c:	00079a63          	bnez	a5,10440 <GpioStructDeInit+0x2c>
D:\CreateIC\01_CPIPC\riscv\RISCV_ENC_20220421\Firmware_true\app_prj\app_demo\Debug/../src/Bsp/Driver/hme_gpio.c:36 (discriminator 1)
   10430:	02400593          	li	a1,36
   10434:	000157b7          	lui	a5,0x15
   10438:	06c78513          	addi	a0,a5,108 # 1506c <__init_array_end>
   1043c:	745020ef          	jal	ra,13380 <assert_failed>
D:\CreateIC\01_CPIPC\riscv\RISCV_ENC_20220421\Firmware_true\app_prj\app_demo\Debug/../src/Bsp/Driver/hme_gpio.c:38

	pstGpioObj->stCfgParam.usDevId      = DEF_GPIO_DEV_ID;
   10440:	fec42783          	lw	a5,-20(s0)
   10444:	00b00713          	li	a4,11
   10448:	00e79023          	sh	a4,0(a5)
D:\CreateIC\01_CPIPC\riscv\RISCV_ENC_20220421\Firmware_true\app_prj\app_demo\Debug/../src/Bsp/Driver/hme_gpio.c:39
	pstGpioObj->stCfgParam.ucDirection  = EN_GPIO_DIR_TYPE_OUT;
   1044c:	fec42783          	lw	a5,-20(s0)
   10450:	00100713          	li	a4,1
   10454:	00e78123          	sb	a4,2(a5)
D:\CreateIC\01_CPIPC\riscv\RISCV_ENC_20220421\Firmware_true\app_prj\app_demo\Debug/../src/Bsp/Driver/hme_gpio.c:40
	pstGpioObj->stCfgParam.ucIntrEn     = DISABLE;
   10458:	fec42783          	lw	a5,-20(s0)
   1045c:	000781a3          	sb	zero,3(a5)
D:\CreateIC\01_CPIPC\riscv\RISCV_ENC_20220421\Firmware_true\app_prj\app_demo\Debug/../src/Bsp/Driver/hme_gpio.c:41
	pstGpioObj->stCfgParam.ucIntrMode   = EN_GPIO_INTR_MODE_NO_OP;
   10460:	fec42783          	lw	a5,-20(s0)
   10464:	00078223          	sb	zero,4(a5)
D:\CreateIC\01_CPIPC\riscv\RISCV_ENC_20220421\Firmware_true\app_prj\app_demo\Debug/../src/Bsp/Driver/hme_gpio.c:42
	pstGpioObj->stCfgParam.ucPullEn     = DISABLE;
   10468:	fec42783          	lw	a5,-20(s0)
   1046c:	000782a3          	sb	zero,5(a5)
D:\CreateIC\01_CPIPC\riscv\RISCV_ENC_20220421\Firmware_true\app_prj\app_demo\Debug/../src/Bsp/Driver/hme_gpio.c:43
	pstGpioObj->stCfgParam.ucPullType   = EN_GPIO_PULL_TYPE_UP;
   10470:	fec42783          	lw	a5,-20(s0)
   10474:	00078323          	sb	zero,6(a5)
D:\CreateIC\01_CPIPC\riscv\RISCV_ENC_20220421\Firmware_true\app_prj\app_demo\Debug/../src/Bsp/Driver/hme_gpio.c:44
	pstGpioObj->stCfgParam.ucDbBounceEn = DISABLE;
   10478:	fec42783          	lw	a5,-20(s0)
   1047c:	000783a3          	sb	zero,7(a5)
D:\CreateIC\01_CPIPC\riscv\RISCV_ENC_20220421\Firmware_true\app_prj\app_demo\Debug/../src/Bsp/Driver/hme_gpio.c:45
	pstGpioObj->stCfgParam.ucDBClkSel   = EN_GPIO_DBCLK_TYPE_EXT;
   10480:	fec42783          	lw	a5,-20(s0)
   10484:	00078423          	sb	zero,8(a5)
D:\CreateIC\01_CPIPC\riscv\RISCV_ENC_20220421\Firmware_true\app_prj\app_demo\Debug/../src/Bsp/Driver/hme_gpio.c:46
	pstGpioObj->stCfgParam.DBPreScale   = 0;
   10488:	fec42783          	lw	a5,-20(s0)
   1048c:	000784a3          	sb	zero,9(a5)
D:\CreateIC\01_CPIPC\riscv\RISCV_ENC_20220421\Firmware_true\app_prj\app_demo\Debug/../src/Bsp/Driver/hme_gpio.c:47
	pstGpioObj->stCfgParam.ulChannels   = GPIO_Pin_All;
   10490:	fec42783          	lw	a5,-20(s0)
   10494:	fff00713          	li	a4,-1
   10498:	00e7a623          	sw	a4,12(a5)
D:\CreateIC\01_CPIPC\riscv\RISCV_ENC_20220421\Firmware_true\app_prj\app_demo\Debug/../src/Bsp/Driver/hme_gpio.c:49

	pstGpioObj->stPlicCfgParam.ucIntrEnFlage = DISABLE;
   1049c:	fec42783          	lw	a5,-20(s0)
   104a0:	00078823          	sb	zero,16(a5)
D:\CreateIC\01_CPIPC\riscv\RISCV_ENC_20220421\Firmware_true\app_prj\app_demo\Debug/../src/Bsp/Driver/hme_gpio.c:50
	pstGpioObj->stPlicCfgParam.ucPriority = EN_PRIORITY_2;
   104a4:	fec42783          	lw	a5,-20(s0)
   104a8:	00200713          	li	a4,2
   104ac:	00e788a3          	sb	a4,17(a5)
D:\CreateIC\01_CPIPC\riscv\RISCV_ENC_20220421\Firmware_true\app_prj\app_demo\Debug/../src/Bsp/Driver/hme_gpio.c:52

	pstGpioObj->pstCtrller = DEV_GPIO;
   104b0:	fec42783          	lw	a5,-20(s0)
   104b4:	f8002737          	lui	a4,0xf8002
   104b8:	00e7aa23          	sw	a4,20(a5)
D:\CreateIC\01_CPIPC\riscv\RISCV_ENC_20220421\Firmware_true\app_prj\app_demo\Debug/../src/Bsp/Driver/hme_gpio.c:53
}
   104bc:	00000013          	nop
   104c0:	01c12083          	lw	ra,28(sp)
   104c4:	01812403          	lw	s0,24(sp)
   104c8:	02010113          	addi	sp,sp,32
   104cc:	00008067          	ret

000104d0 <GpioObjConfigInit>:
GpioObjConfigInit():
D:\CreateIC\01_CPIPC\riscv\RISCV_ENC_20220421\Firmware_true\app_prj\app_demo\Debug/../src/Bsp/Driver/hme_gpio.c:92
 * @brief  GPIO结构体控制器配置
 * @param  pstGpioObj：配置的GPIO对象
 * @retval 无
*****************************************************************/
void GpioObjConfigInit(PST_GPIO_ATTR pstGpioObj)
{
   104d0:	fd010113          	addi	sp,sp,-48
   104d4:	02112623          	sw	ra,44(sp)
   104d8:	02812423          	sw	s0,40(sp)
   104dc:	03010413          	addi	s0,sp,48
   104e0:	fca42e23          	sw	a0,-36(s0)
D:\CreateIC\01_CPIPC\riscv\RISCV_ENC_20220421\Firmware_true\app_prj\app_demo\Debug/../src/Bsp/Driver/hme_gpio.c:93
	assert_param(NULL != pstGpioObj);
   104e4:	fdc42783          	lw	a5,-36(s0)
   104e8:	00079a63          	bnez	a5,104fc <GpioObjConfigInit+0x2c>
D:\CreateIC\01_CPIPC\riscv\RISCV_ENC_20220421\Firmware_true\app_prj\app_demo\Debug/../src/Bsp/Driver/hme_gpio.c:93 (discriminator 1)
   104ec:	05d00593          	li	a1,93
   104f0:	000157b7          	lui	a5,0x15
   104f4:	06c78513          	addi	a0,a5,108 # 1506c <__init_array_end>
   104f8:	689020ef          	jal	ra,13380 <assert_failed>
D:\CreateIC\01_CPIPC\riscv\RISCV_ENC_20220421\Firmware_true\app_prj\app_demo\Debug/../src/Bsp/Driver/hme_gpio.c:94
	assert_param(NULL != pstGpioObj->pstCtrller);
   104fc:	fdc42783          	lw	a5,-36(s0)
   10500:	0147a783          	lw	a5,20(a5)
   10504:	00079a63          	bnez	a5,10518 <GpioObjConfigInit+0x48>
D:\CreateIC\01_CPIPC\riscv\RISCV_ENC_20220421\Firmware_true\app_prj\app_demo\Debug/../src/Bsp/Driver/hme_gpio.c:94 (discriminator 1)
   10508:	05e00593          	li	a1,94
   1050c:	000157b7          	lui	a5,0x15
   10510:	06c78513          	addi	a0,a5,108 # 1506c <__init_array_end>
   10514:	66d020ef          	jal	ra,13380 <assert_failed>
D:\CreateIC\01_CPIPC\riscv\RISCV_ENC_20220421\Firmware_true\app_prj\app_demo\Debug/../src/Bsp/Driver/hme_gpio.c:96

	uint32_t ulGpioEnVal= 0;
   10518:	fe042623          	sw	zero,-20(s0)
D:\CreateIC\01_CPIPC\riscv\RISCV_ENC_20220421\Firmware_true\app_prj\app_demo\Debug/../src/Bsp/Driver/hme_gpio.c:97
	ST_PLIC_REG_PARAM stGpioRegParam = {0};
   1051c:	fe042023          	sw	zero,-32(s0)
   10520:	fe042223          	sw	zero,-28(s0)
   10524:	fe042423          	sw	zero,-24(s0)
D:\CreateIC\01_CPIPC\riscv\RISCV_ENC_20220421\Firmware_true\app_prj\app_demo\Debug/../src/Bsp/Driver/hme_gpio.c:100

	//PLIC中断使能和注册
	ulGpioEnVal = DevIntrEnTableGet(pstGpioObj->stCfgParam.usDevId);
   10528:	fdc42783          	lw	a5,-36(s0)
   1052c:	0007d783          	lhu	a5,0(a5)
   10530:	00078513          	mv	a0,a5
   10534:	5e9000ef          	jal	ra,1131c <DevIntrEnTableGet>
   10538:	fea42623          	sw	a0,-20(s0)
D:\CreateIC\01_CPIPC\riscv\RISCV_ENC_20220421\Firmware_true\app_prj\app_demo\Debug/../src/Bsp/Driver/hme_gpio.c:101
	stGpioRegParam.usIntrId = DevIntrIdTableGet(pstGpioObj->stCfgParam.usDevId);
   1053c:	fdc42783          	lw	a5,-36(s0)
   10540:	0007d783          	lhu	a5,0(a5)
   10544:	00078513          	mv	a0,a5
   10548:	3fd000ef          	jal	ra,11144 <DevIntrIdTableGet>
   1054c:	00050793          	mv	a5,a0
   10550:	fef41023          	sh	a5,-32(s0)
D:\CreateIC\01_CPIPC\riscv\RISCV_ENC_20220421\Firmware_true\app_prj\app_demo\Debug/../src/Bsp/Driver/hme_gpio.c:102
	stGpioRegParam.IntrHander = PlicGpioHandle;
   10554:	000117b7          	lui	a5,0x11
   10558:	fa078793          	addi	a5,a5,-96 # 10fa0 <PlicGpioHandle>
   1055c:	fef42223          	sw	a5,-28(s0)
D:\CreateIC\01_CPIPC\riscv\RISCV_ENC_20220421\Firmware_true\app_prj\app_demo\Debug/../src/Bsp/Driver/hme_gpio.c:103
	stGpioRegParam.ptrBackCall = pstGpioObj;
   10560:	fdc42783          	lw	a5,-36(s0)
   10564:	fef42423          	sw	a5,-24(s0)
D:\CreateIC\01_CPIPC\riscv\RISCV_ENC_20220421\Firmware_true\app_prj\app_demo\Debug/../src/Bsp/Driver/hme_gpio.c:104
	if (pstGpioObj->stPlicCfgParam.ucIntrEnFlage)
   10568:	fdc42783          	lw	a5,-36(s0)
   1056c:	0107c783          	lbu	a5,16(a5)
   10570:	04078063          	beqz	a5,105b0 <GpioObjConfigInit+0xe0>
D:\CreateIC\01_CPIPC\riscv\RISCV_ENC_20220421\Firmware_true\app_prj\app_demo\Debug/../src/Bsp/Driver/hme_gpio.c:107
	{
		//intr Priority set
		IntrPrioritySet(pstGpioObj->stCfgParam.usDevId, pstGpioObj->stPlicCfgParam.ucPriority);
   10574:	fdc42783          	lw	a5,-36(s0)
   10578:	0007d703          	lhu	a4,0(a5)
   1057c:	fdc42783          	lw	a5,-36(s0)
   10580:	0117c783          	lbu	a5,17(a5)
   10584:	00078593          	mv	a1,a5
   10588:	00070513          	mv	a0,a4
   1058c:	67d000ef          	jal	ra,11408 <IntrPrioritySet>
D:\CreateIC\01_CPIPC\riscv\RISCV_ENC_20220421\Firmware_true\app_prj\app_demo\Debug/../src/Bsp/Driver/hme_gpio.c:109
        //intr handle register
		PlicIntrHandleRegister(&stGpioRegParam, pstGpioObj->stCfgParam.usDevId);
   10590:	fdc42783          	lw	a5,-36(s0)
   10594:	0007d703          	lhu	a4,0(a5)
   10598:	fe040793          	addi	a5,s0,-32
   1059c:	00070593          	mv	a1,a4
   105a0:	00078513          	mv	a0,a5
   105a4:	1c4010ef          	jal	ra,11768 <PlicIntrHandleRegister>
D:\CreateIC\01_CPIPC\riscv\RISCV_ENC_20220421\Firmware_true\app_prj\app_demo\Debug/../src/Bsp/Driver/hme_gpio.c:111
		//intr handle enable
		PlicEnableSet(ulGpioEnVal);
   105a8:	fec42503          	lw	a0,-20(s0)
   105ac:	0ac010ef          	jal	ra,11658 <PlicEnableSet>
D:\CreateIC\01_CPIPC\riscv\RISCV_ENC_20220421\Firmware_true\app_prj\app_demo\Debug/../src/Bsp/Driver/hme_gpio.c:115
	}

	//GPIO方向配置
	GpioBitsDirCfg(pstGpioObj);
   105b0:	fdc42503          	lw	a0,-36(s0)
   105b4:	030000ef          	jal	ra,105e4 <GpioBitsDirCfg>
D:\CreateIC\01_CPIPC\riscv\RISCV_ENC_20220421\Firmware_true\app_prj\app_demo\Debug/../src/Bsp/Driver/hme_gpio.c:117
	//GPIO中断配置
	GpioBitsIntrCfg(pstGpioObj);
   105b8:	fdc42503          	lw	a0,-36(s0)
   105bc:	594000ef          	jal	ra,10b50 <GpioBitsIntrCfg>
D:\CreateIC\01_CPIPC\riscv\RISCV_ENC_20220421\Firmware_true\app_prj\app_demo\Debug/../src/Bsp/Driver/hme_gpio.c:119
	//GPIO上下拉配置
	GpioBitsPullCfg(pstGpioObj);
   105c0:	fdc42503          	lw	a0,-36(s0)
   105c4:	210000ef          	jal	ra,107d4 <GpioBitsPullCfg>
D:\CreateIC\01_CPIPC\riscv\RISCV_ENC_20220421\Firmware_true\app_prj\app_demo\Debug/../src/Bsp/Driver/hme_gpio.c:121
	//中断防抖配置
	GpioBitsDebounceCfg(pstGpioObj);
   105c8:	fdc42503          	lw	a0,-36(s0)
   105cc:	3b8000ef          	jal	ra,10984 <GpioBitsDebounceCfg>
D:\CreateIC\01_CPIPC\riscv\RISCV_ENC_20220421\Firmware_true\app_prj\app_demo\Debug/../src/Bsp/Driver/hme_gpio.c:122
}
   105d0:	00000013          	nop
   105d4:	02c12083          	lw	ra,44(sp)
   105d8:	02812403          	lw	s0,40(sp)
   105dc:	03010113          	addi	sp,sp,48
   105e0:	00008067          	ret

000105e4 <GpioBitsDirCfg>:
GpioBitsDirCfg():
D:\CreateIC\01_CPIPC\riscv\RISCV_ENC_20220421\Firmware_true\app_prj\app_demo\Debug/../src/Bsp/Driver/hme_gpio.c:142
 * @brief  GPIO引脚的方向配置
 * @param  pstGpioObj：GPIO设备参数
 * @retval 无
 *****************************************************************/
void GpioBitsDirCfg(PST_GPIO_ATTR pstGpioObj)
{
   105e4:	fd010113          	addi	sp,sp,-48
   105e8:	02112623          	sw	ra,44(sp)
   105ec:	02812423          	sw	s0,40(sp)
   105f0:	03010413          	addi	s0,sp,48
   105f4:	fca42e23          	sw	a0,-36(s0)
D:\CreateIC\01_CPIPC\riscv\RISCV_ENC_20220421\Firmware_true\app_prj\app_demo\Debug/../src/Bsp/Driver/hme_gpio.c:143
	assert_param(NULL != pstGpioObj);
   105f8:	fdc42783          	lw	a5,-36(s0)
   105fc:	00079a63          	bnez	a5,10610 <GpioBitsDirCfg+0x2c>
D:\CreateIC\01_CPIPC\riscv\RISCV_ENC_20220421\Firmware_true\app_prj\app_demo\Debug/../src/Bsp/Driver/hme_gpio.c:143 (discriminator 1)
   10600:	08f00593          	li	a1,143
   10604:	000157b7          	lui	a5,0x15
   10608:	06c78513          	addi	a0,a5,108 # 1506c <__init_array_end>
   1060c:	575020ef          	jal	ra,13380 <assert_failed>
D:\CreateIC\01_CPIPC\riscv\RISCV_ENC_20220421\Firmware_true\app_prj\app_demo\Debug/../src/Bsp/Driver/hme_gpio.c:144
	assert_param(NULL != pstGpioObj->pstCtrller);
   10610:	fdc42783          	lw	a5,-36(s0)
   10614:	0147a783          	lw	a5,20(a5)
   10618:	00079a63          	bnez	a5,1062c <GpioBitsDirCfg+0x48>
D:\CreateIC\01_CPIPC\riscv\RISCV_ENC_20220421\Firmware_true\app_prj\app_demo\Debug/../src/Bsp/Driver/hme_gpio.c:144 (discriminator 1)
   1061c:	09000593          	li	a1,144
   10620:	000157b7          	lui	a5,0x15
   10624:	06c78513          	addi	a0,a5,108 # 1506c <__init_array_end>
   10628:	559020ef          	jal	ra,13380 <assert_failed>
D:\CreateIC\01_CPIPC\riscv\RISCV_ENC_20220421\Firmware_true\app_prj\app_demo\Debug/../src/Bsp/Driver/hme_gpio.c:146

	uint32_t ulTemParam = 0;
   1062c:	fe042623          	sw	zero,-20(s0)
D:\CreateIC\01_CPIPC\riscv\RISCV_ENC_20220421\Firmware_true\app_prj\app_demo\Debug/../src/Bsp/Driver/hme_gpio.c:147
	uint8_t  ucDirFlag  = pstGpioObj->stCfgParam.ucDirection;
   10630:	fdc42783          	lw	a5,-36(s0)
   10634:	0027c783          	lbu	a5,2(a5)
   10638:	fef405a3          	sb	a5,-21(s0)
D:\CreateIC\01_CPIPC\riscv\RISCV_ENC_20220421\Firmware_true\app_prj\app_demo\Debug/../src/Bsp/Driver/hme_gpio.c:148
	uint32_t ulChannels   = pstGpioObj->stCfgParam.ulChannels;
   1063c:	fdc42783          	lw	a5,-36(s0)
   10640:	00c7a783          	lw	a5,12(a5)
   10644:	fef42223          	sw	a5,-28(s0)
D:\CreateIC\01_CPIPC\riscv\RISCV_ENC_20220421\Firmware_true\app_prj\app_demo\Debug/../src/Bsp/Driver/hme_gpio.c:150

	assert_param(IS_GPIO_DIR_TYPE(ucDirFlag));
   10648:	feb44783          	lbu	a5,-21(s0)
   1064c:	02078063          	beqz	a5,1066c <GpioBitsDirCfg+0x88>
D:\CreateIC\01_CPIPC\riscv\RISCV_ENC_20220421\Firmware_true\app_prj\app_demo\Debug/../src/Bsp/Driver/hme_gpio.c:150 (discriminator 1)
   10650:	feb44703          	lbu	a4,-21(s0)
   10654:	00100793          	li	a5,1
   10658:	00f70a63          	beq	a4,a5,1066c <GpioBitsDirCfg+0x88>
D:\CreateIC\01_CPIPC\riscv\RISCV_ENC_20220421\Firmware_true\app_prj\app_demo\Debug/../src/Bsp/Driver/hme_gpio.c:150 (discriminator 2)
   1065c:	09600593          	li	a1,150
   10660:	000157b7          	lui	a5,0x15
   10664:	06c78513          	addi	a0,a5,108 # 1506c <__init_array_end>
   10668:	519020ef          	jal	ra,13380 <assert_failed>
D:\CreateIC\01_CPIPC\riscv\RISCV_ENC_20220421\Firmware_true\app_prj\app_demo\Debug/../src/Bsp/Driver/hme_gpio.c:152

	ulTemParam = pstGpioObj->pstCtrller->CHANNELDIR;
   1066c:	fdc42783          	lw	a5,-36(s0)
   10670:	0147a783          	lw	a5,20(a5)
   10674:	0287a783          	lw	a5,40(a5)
   10678:	fef42623          	sw	a5,-20(s0)
D:\CreateIC\01_CPIPC\riscv\RISCV_ENC_20220421\Firmware_true\app_prj\app_demo\Debug/../src/Bsp/Driver/hme_gpio.c:154

	if (ucDirFlag == EN_GPIO_DIR_TYPE_OUT)
   1067c:	feb44703          	lbu	a4,-21(s0)
   10680:	00100793          	li	a5,1
   10684:	02f71463          	bne	a4,a5,106ac <GpioBitsDirCfg+0xc8>
D:\CreateIC\01_CPIPC\riscv\RISCV_ENC_20220421\Firmware_true\app_prj\app_demo\Debug/../src/Bsp/Driver/hme_gpio.c:156
	{
		ulTemParam = ulTemParam | ulChannels;
   10688:	fec42703          	lw	a4,-20(s0)
   1068c:	fe442783          	lw	a5,-28(s0)
   10690:	00f767b3          	or	a5,a4,a5
   10694:	fef42623          	sw	a5,-20(s0)
D:\CreateIC\01_CPIPC\riscv\RISCV_ENC_20220421\Firmware_true\app_prj\app_demo\Debug/../src/Bsp/Driver/hme_gpio.c:157
		pstGpioObj->pstCtrller->CHANNELDIR = ulTemParam;
   10698:	fdc42783          	lw	a5,-36(s0)
   1069c:	0147a783          	lw	a5,20(a5)
   106a0:	fec42703          	lw	a4,-20(s0)
   106a4:	02e7a423          	sw	a4,40(a5)
D:\CreateIC\01_CPIPC\riscv\RISCV_ENC_20220421\Firmware_true\app_prj\app_demo\Debug/../src/Bsp/Driver/hme_gpio.c:164
	else
	{
		ulTemParam = (ulTemParam & (~ulChannels));
		pstGpioObj->pstCtrller->CHANNELDIR = ulTemParam;
	}
}
   106a8:	0280006f          	j	106d0 <GpioBitsDirCfg+0xec>
D:\CreateIC\01_CPIPC\riscv\RISCV_ENC_20220421\Firmware_true\app_prj\app_demo\Debug/../src/Bsp/Driver/hme_gpio.c:161
		ulTemParam = (ulTemParam & (~ulChannels));
   106ac:	fe442783          	lw	a5,-28(s0)
   106b0:	fff7c793          	not	a5,a5
   106b4:	fec42703          	lw	a4,-20(s0)
   106b8:	00f777b3          	and	a5,a4,a5
   106bc:	fef42623          	sw	a5,-20(s0)
D:\CreateIC\01_CPIPC\riscv\RISCV_ENC_20220421\Firmware_true\app_prj\app_demo\Debug/../src/Bsp/Driver/hme_gpio.c:162
		pstGpioObj->pstCtrller->CHANNELDIR = ulTemParam;
   106c0:	fdc42783          	lw	a5,-36(s0)
   106c4:	0147a783          	lw	a5,20(a5)
   106c8:	fec42703          	lw	a4,-20(s0)
   106cc:	02e7a423          	sw	a4,40(a5)
D:\CreateIC\01_CPIPC\riscv\RISCV_ENC_20220421\Firmware_true\app_prj\app_demo\Debug/../src/Bsp/Driver/hme_gpio.c:164
}
   106d0:	00000013          	nop
   106d4:	02c12083          	lw	ra,44(sp)
   106d8:	02812403          	lw	s0,40(sp)
   106dc:	03010113          	addi	sp,sp,48
   106e0:	00008067          	ret

000106e4 <GpioBitsDoutSet>:
GpioBitsDoutSet():
D:\CreateIC\01_CPIPC\riscv\RISCV_ENC_20220421\Firmware_true\app_prj\app_demo\Debug/../src/Bsp/Driver/hme_gpio.c:184
 * @brief  GPIO端口输出设置
 * @param  pstGpioObj：GPIO设备对象
 * @retval 无
 *****************************************************************/
void GpioBitsDoutSet(PST_GPIO_ATTR pstGpioObj)
{
   106e4:	fd010113          	addi	sp,sp,-48
   106e8:	02112623          	sw	ra,44(sp)
   106ec:	02812423          	sw	s0,40(sp)
   106f0:	03010413          	addi	s0,sp,48
   106f4:	fca42e23          	sw	a0,-36(s0)
D:\CreateIC\01_CPIPC\riscv\RISCV_ENC_20220421\Firmware_true\app_prj\app_demo\Debug/../src/Bsp/Driver/hme_gpio.c:185
	assert_param(NULL != pstGpioObj);
   106f8:	fdc42783          	lw	a5,-36(s0)
   106fc:	00079a63          	bnez	a5,10710 <GpioBitsDoutSet+0x2c>
D:\CreateIC\01_CPIPC\riscv\RISCV_ENC_20220421\Firmware_true\app_prj\app_demo\Debug/../src/Bsp/Driver/hme_gpio.c:185 (discriminator 1)
   10700:	0b900593          	li	a1,185
   10704:	000157b7          	lui	a5,0x15
   10708:	06c78513          	addi	a0,a5,108 # 1506c <__init_array_end>
   1070c:	475020ef          	jal	ra,13380 <assert_failed>
D:\CreateIC\01_CPIPC\riscv\RISCV_ENC_20220421\Firmware_true\app_prj\app_demo\Debug/../src/Bsp/Driver/hme_gpio.c:186
	assert_param(NULL != pstGpioObj->pstCtrller);
   10710:	fdc42783          	lw	a5,-36(s0)
   10714:	0147a783          	lw	a5,20(a5)
   10718:	00079a63          	bnez	a5,1072c <GpioBitsDoutSet+0x48>
D:\CreateIC\01_CPIPC\riscv\RISCV_ENC_20220421\Firmware_true\app_prj\app_demo\Debug/../src/Bsp/Driver/hme_gpio.c:186 (discriminator 1)
   1071c:	0ba00593          	li	a1,186
   10720:	000157b7          	lui	a5,0x15
   10724:	06c78513          	addi	a0,a5,108 # 1506c <__init_array_end>
   10728:	459020ef          	jal	ra,13380 <assert_failed>
D:\CreateIC\01_CPIPC\riscv\RISCV_ENC_20220421\Firmware_true\app_prj\app_demo\Debug/../src/Bsp/Driver/hme_gpio.c:188

	uint32_t ulChannels = pstGpioObj->stCfgParam.ulChannels;
   1072c:	fdc42783          	lw	a5,-36(s0)
   10730:	00c7a783          	lw	a5,12(a5)
   10734:	fef42623          	sw	a5,-20(s0)
D:\CreateIC\01_CPIPC\riscv\RISCV_ENC_20220421\Firmware_true\app_prj\app_demo\Debug/../src/Bsp/Driver/hme_gpio.c:189
	pstGpioObj->pstCtrller->DOUTSET = ulChannels;
   10738:	fdc42783          	lw	a5,-36(s0)
   1073c:	0147a783          	lw	a5,20(a5)
   10740:	fec42703          	lw	a4,-20(s0)
   10744:	02e7a823          	sw	a4,48(a5)
D:\CreateIC\01_CPIPC\riscv\RISCV_ENC_20220421\Firmware_true\app_prj\app_demo\Debug/../src/Bsp/Driver/hme_gpio.c:190
}
   10748:	00000013          	nop
   1074c:	02c12083          	lw	ra,44(sp)
   10750:	02812403          	lw	s0,40(sp)
   10754:	03010113          	addi	sp,sp,48
   10758:	00008067          	ret

0001075c <GpioBitsDoutClear>:
GpioBitsDoutClear():
D:\CreateIC\01_CPIPC\riscv\RISCV_ENC_20220421\Firmware_true\app_prj\app_demo\Debug/../src/Bsp/Driver/hme_gpio.c:198
 * @brief  GPIO端口输出清零
 * @param  pstGpioObj：GPIO设备对象
 * @retval 无
 *****************************************************************/
void GpioBitsDoutClear(PST_GPIO_ATTR pstGpioObj)
{
   1075c:	fd010113          	addi	sp,sp,-48
   10760:	02112623          	sw	ra,44(sp)
   10764:	02812423          	sw	s0,40(sp)
   10768:	03010413          	addi	s0,sp,48
   1076c:	fca42e23          	sw	a0,-36(s0)
D:\CreateIC\01_CPIPC\riscv\RISCV_ENC_20220421\Firmware_true\app_prj\app_demo\Debug/../src/Bsp/Driver/hme_gpio.c:199
	assert_param(NULL != pstGpioObj);
   10770:	fdc42783          	lw	a5,-36(s0)
   10774:	00079a63          	bnez	a5,10788 <GpioBitsDoutClear+0x2c>
D:\CreateIC\01_CPIPC\riscv\RISCV_ENC_20220421\Firmware_true\app_prj\app_demo\Debug/../src/Bsp/Driver/hme_gpio.c:199 (discriminator 1)
   10778:	0c700593          	li	a1,199
   1077c:	000157b7          	lui	a5,0x15
   10780:	06c78513          	addi	a0,a5,108 # 1506c <__init_array_end>
   10784:	3fd020ef          	jal	ra,13380 <assert_failed>
D:\CreateIC\01_CPIPC\riscv\RISCV_ENC_20220421\Firmware_true\app_prj\app_demo\Debug/../src/Bsp/Driver/hme_gpio.c:200
	assert_param(NULL != pstGpioObj->pstCtrller);
   10788:	fdc42783          	lw	a5,-36(s0)
   1078c:	0147a783          	lw	a5,20(a5)
   10790:	00079a63          	bnez	a5,107a4 <GpioBitsDoutClear+0x48>
D:\CreateIC\01_CPIPC\riscv\RISCV_ENC_20220421\Firmware_true\app_prj\app_demo\Debug/../src/Bsp/Driver/hme_gpio.c:200 (discriminator 1)
   10794:	0c800593          	li	a1,200
   10798:	000157b7          	lui	a5,0x15
   1079c:	06c78513          	addi	a0,a5,108 # 1506c <__init_array_end>
   107a0:	3e1020ef          	jal	ra,13380 <assert_failed>
D:\CreateIC\01_CPIPC\riscv\RISCV_ENC_20220421\Firmware_true\app_prj\app_demo\Debug/../src/Bsp/Driver/hme_gpio.c:202

	uint32_t ulChannels   = pstGpioObj->stCfgParam.ulChannels;
   107a4:	fdc42783          	lw	a5,-36(s0)
   107a8:	00c7a783          	lw	a5,12(a5)
   107ac:	fef42623          	sw	a5,-20(s0)
D:\CreateIC\01_CPIPC\riscv\RISCV_ENC_20220421\Firmware_true\app_prj\app_demo\Debug/../src/Bsp/Driver/hme_gpio.c:203
	pstGpioObj->pstCtrller->DOUTCLEAR = ulChannels;
   107b0:	fdc42783          	lw	a5,-36(s0)
   107b4:	0147a783          	lw	a5,20(a5)
   107b8:	fec42703          	lw	a4,-20(s0)
   107bc:	02e7a623          	sw	a4,44(a5)
D:\CreateIC\01_CPIPC\riscv\RISCV_ENC_20220421\Firmware_true\app_prj\app_demo\Debug/../src/Bsp/Driver/hme_gpio.c:204
}
   107c0:	00000013          	nop
   107c4:	02c12083          	lw	ra,44(sp)
   107c8:	02812403          	lw	s0,40(sp)
   107cc:	03010113          	addi	sp,sp,48
   107d0:	00008067          	ret

000107d4 <GpioBitsPullCfg>:
GpioBitsPullCfg():
D:\CreateIC\01_CPIPC\riscv\RISCV_ENC_20220421\Firmware_true\app_prj\app_demo\Debug/../src/Bsp/Driver/hme_gpio.c:238
 * @brief  GPIO上下拉属性配置
 * @param  pstGpioObj：GPIO设备对象
 * @retval 无
 *****************************************************************/
void GpioBitsPullCfg(PST_GPIO_ATTR pstGpioObj)
{
   107d4:	fd010113          	addi	sp,sp,-48
   107d8:	02112623          	sw	ra,44(sp)
   107dc:	02812423          	sw	s0,40(sp)
   107e0:	03010413          	addi	s0,sp,48
   107e4:	fca42e23          	sw	a0,-36(s0)
D:\CreateIC\01_CPIPC\riscv\RISCV_ENC_20220421\Firmware_true\app_prj\app_demo\Debug/../src/Bsp/Driver/hme_gpio.c:239
	assert_param(NULL != pstGpioObj);
   107e8:	fdc42783          	lw	a5,-36(s0)
   107ec:	00079a63          	bnez	a5,10800 <GpioBitsPullCfg+0x2c>
D:\CreateIC\01_CPIPC\riscv\RISCV_ENC_20220421\Firmware_true\app_prj\app_demo\Debug/../src/Bsp/Driver/hme_gpio.c:239 (discriminator 1)
   107f0:	0ef00593          	li	a1,239
   107f4:	000157b7          	lui	a5,0x15
   107f8:	06c78513          	addi	a0,a5,108 # 1506c <__init_array_end>
   107fc:	385020ef          	jal	ra,13380 <assert_failed>
D:\CreateIC\01_CPIPC\riscv\RISCV_ENC_20220421\Firmware_true\app_prj\app_demo\Debug/../src/Bsp/Driver/hme_gpio.c:240
	assert_param(NULL != pstGpioObj->pstCtrller);
   10800:	fdc42783          	lw	a5,-36(s0)
   10804:	0147a783          	lw	a5,20(a5)
   10808:	00079a63          	bnez	a5,1081c <GpioBitsPullCfg+0x48>
D:\CreateIC\01_CPIPC\riscv\RISCV_ENC_20220421\Firmware_true\app_prj\app_demo\Debug/../src/Bsp/Driver/hme_gpio.c:240 (discriminator 1)
   1080c:	0f000593          	li	a1,240
   10810:	000157b7          	lui	a5,0x15
   10814:	06c78513          	addi	a0,a5,108 # 1506c <__init_array_end>
   10818:	369020ef          	jal	ra,13380 <assert_failed>
D:\CreateIC\01_CPIPC\riscv\RISCV_ENC_20220421\Firmware_true\app_prj\app_demo\Debug/../src/Bsp/Driver/hme_gpio.c:242

	uint32_t ulTemParam = 0;
   1081c:	fe042623          	sw	zero,-20(s0)
D:\CreateIC\01_CPIPC\riscv\RISCV_ENC_20220421\Firmware_true\app_prj\app_demo\Debug/../src/Bsp/Driver/hme_gpio.c:243
	uint8_t  ucPullEnFlag = pstGpioObj->stCfgParam.ucPullEn;
   10820:	fdc42783          	lw	a5,-36(s0)
   10824:	0057c783          	lbu	a5,5(a5)
   10828:	fef405a3          	sb	a5,-21(s0)
D:\CreateIC\01_CPIPC\riscv\RISCV_ENC_20220421\Firmware_true\app_prj\app_demo\Debug/../src/Bsp/Driver/hme_gpio.c:244
	uint8_t  ucPullType   = pstGpioObj->stCfgParam.ucPullType;
   1082c:	fdc42783          	lw	a5,-36(s0)
   10830:	0067c783          	lbu	a5,6(a5)
   10834:	fef40523          	sb	a5,-22(s0)
D:\CreateIC\01_CPIPC\riscv\RISCV_ENC_20220421\Firmware_true\app_prj\app_demo\Debug/../src/Bsp/Driver/hme_gpio.c:245
	uint32_t ulChannels   = pstGpioObj->stCfgParam.ulChannels;
   10838:	fdc42783          	lw	a5,-36(s0)
   1083c:	00c7a783          	lw	a5,12(a5)
   10840:	fef42223          	sw	a5,-28(s0)
D:\CreateIC\01_CPIPC\riscv\RISCV_ENC_20220421\Firmware_true\app_prj\app_demo\Debug/../src/Bsp/Driver/hme_gpio.c:247

	assert_param(IS_GPIO_ENABLE_TYPE(ucPullEnFlag));
   10844:	feb44783          	lbu	a5,-21(s0)
   10848:	02078063          	beqz	a5,10868 <GpioBitsPullCfg+0x94>
D:\CreateIC\01_CPIPC\riscv\RISCV_ENC_20220421\Firmware_true\app_prj\app_demo\Debug/../src/Bsp/Driver/hme_gpio.c:247 (discriminator 1)
   1084c:	feb44703          	lbu	a4,-21(s0)
   10850:	00100793          	li	a5,1
   10854:	00f70a63          	beq	a4,a5,10868 <GpioBitsPullCfg+0x94>
D:\CreateIC\01_CPIPC\riscv\RISCV_ENC_20220421\Firmware_true\app_prj\app_demo\Debug/../src/Bsp/Driver/hme_gpio.c:247 (discriminator 2)
   10858:	0f700593          	li	a1,247
   1085c:	000157b7          	lui	a5,0x15
   10860:	06c78513          	addi	a0,a5,108 # 1506c <__init_array_end>
   10864:	31d020ef          	jal	ra,13380 <assert_failed>
D:\CreateIC\01_CPIPC\riscv\RISCV_ENC_20220421\Firmware_true\app_prj\app_demo\Debug/../src/Bsp/Driver/hme_gpio.c:248
	assert_param(IS_GPIO_PULL_TYPE(ucPullType));
   10868:	fea44783          	lbu	a5,-22(s0)
   1086c:	02078063          	beqz	a5,1088c <GpioBitsPullCfg+0xb8>
D:\CreateIC\01_CPIPC\riscv\RISCV_ENC_20220421\Firmware_true\app_prj\app_demo\Debug/../src/Bsp/Driver/hme_gpio.c:248 (discriminator 1)
   10870:	fea44703          	lbu	a4,-22(s0)
   10874:	00100793          	li	a5,1
   10878:	00f70a63          	beq	a4,a5,1088c <GpioBitsPullCfg+0xb8>
D:\CreateIC\01_CPIPC\riscv\RISCV_ENC_20220421\Firmware_true\app_prj\app_demo\Debug/../src/Bsp/Driver/hme_gpio.c:248 (discriminator 2)
   1087c:	0f800593          	li	a1,248
   10880:	000157b7          	lui	a5,0x15
   10884:	06c78513          	addi	a0,a5,108 # 1506c <__init_array_end>
   10888:	2f9020ef          	jal	ra,13380 <assert_failed>
D:\CreateIC\01_CPIPC\riscv\RISCV_ENC_20220421\Firmware_true\app_prj\app_demo\Debug/../src/Bsp/Driver/hme_gpio.c:250

	if (ucPullEnFlag == ENABLE)
   1088c:	feb44703          	lbu	a4,-21(s0)
   10890:	00100793          	li	a5,1
   10894:	0af71463          	bne	a4,a5,1093c <GpioBitsPullCfg+0x168>
D:\CreateIC\01_CPIPC\riscv\RISCV_ENC_20220421\Firmware_true\app_prj\app_demo\Debug/../src/Bsp/Driver/hme_gpio.c:252
	{
		ulTemParam = pstGpioObj->pstCtrller->PULLEN;
   10898:	fdc42783          	lw	a5,-36(s0)
   1089c:	0147a783          	lw	a5,20(a5)
   108a0:	0407a783          	lw	a5,64(a5)
   108a4:	fef42623          	sw	a5,-20(s0)
D:\CreateIC\01_CPIPC\riscv\RISCV_ENC_20220421\Firmware_true\app_prj\app_demo\Debug/../src/Bsp/Driver/hme_gpio.c:253
		ulTemParam = ulTemParam | ulChannels;
   108a8:	fec42703          	lw	a4,-20(s0)
   108ac:	fe442783          	lw	a5,-28(s0)
   108b0:	00f767b3          	or	a5,a4,a5
   108b4:	fef42623          	sw	a5,-20(s0)
D:\CreateIC\01_CPIPC\riscv\RISCV_ENC_20220421\Firmware_true\app_prj\app_demo\Debug/../src/Bsp/Driver/hme_gpio.c:254
		pstGpioObj->pstCtrller->PULLEN = ulTemParam;
   108b8:	fdc42783          	lw	a5,-36(s0)
   108bc:	0147a783          	lw	a5,20(a5)
   108c0:	fec42703          	lw	a4,-20(s0)
   108c4:	04e7a023          	sw	a4,64(a5)
D:\CreateIC\01_CPIPC\riscv\RISCV_ENC_20220421\Firmware_true\app_prj\app_demo\Debug/../src/Bsp/Driver/hme_gpio.c:256

		if (ucPullType == EN_GPIO_PULL_TYPE_UP)
   108c8:	fea44783          	lbu	a5,-22(s0)
   108cc:	02079e63          	bnez	a5,10908 <GpioBitsPullCfg+0x134>
D:\CreateIC\01_CPIPC\riscv\RISCV_ENC_20220421\Firmware_true\app_prj\app_demo\Debug/../src/Bsp/Driver/hme_gpio.c:258
		{
			ulTemParam = pstGpioObj->pstCtrller->PULLTYPE;
   108d0:	fdc42783          	lw	a5,-36(s0)
   108d4:	0147a783          	lw	a5,20(a5)
   108d8:	0447a783          	lw	a5,68(a5)
   108dc:	fef42623          	sw	a5,-20(s0)
D:\CreateIC\01_CPIPC\riscv\RISCV_ENC_20220421\Firmware_true\app_prj\app_demo\Debug/../src/Bsp/Driver/hme_gpio.c:259
			ulTemParam = ulTemParam & (~ulChannels);
   108e0:	fe442783          	lw	a5,-28(s0)
   108e4:	fff7c793          	not	a5,a5
   108e8:	fec42703          	lw	a4,-20(s0)
   108ec:	00f777b3          	and	a5,a4,a5
   108f0:	fef42623          	sw	a5,-20(s0)
D:\CreateIC\01_CPIPC\riscv\RISCV_ENC_20220421\Firmware_true\app_prj\app_demo\Debug/../src/Bsp/Driver/hme_gpio.c:260
			pstGpioObj->pstCtrller->PULLTYPE = ulTemParam;
   108f4:	fdc42783          	lw	a5,-36(s0)
   108f8:	0147a783          	lw	a5,20(a5)
   108fc:	fec42703          	lw	a4,-20(s0)
   10900:	04e7a223          	sw	a4,68(a5)
D:\CreateIC\01_CPIPC\riscv\RISCV_ENC_20220421\Firmware_true\app_prj\app_demo\Debug/../src/Bsp/Driver/hme_gpio.c:275
	{
		ulTemParam = pstGpioObj->pstCtrller->PULLEN;
		ulTemParam = ulTemParam & (~ulChannels);
		pstGpioObj->pstCtrller->PULLEN = ulTemParam;
	}
}
   10904:	06c0006f          	j	10970 <GpioBitsPullCfg+0x19c>
D:\CreateIC\01_CPIPC\riscv\RISCV_ENC_20220421\Firmware_true\app_prj\app_demo\Debug/../src/Bsp/Driver/hme_gpio.c:264
			ulTemParam = pstGpioObj->pstCtrller->PULLTYPE;
   10908:	fdc42783          	lw	a5,-36(s0)
   1090c:	0147a783          	lw	a5,20(a5)
   10910:	0447a783          	lw	a5,68(a5)
   10914:	fef42623          	sw	a5,-20(s0)
D:\CreateIC\01_CPIPC\riscv\RISCV_ENC_20220421\Firmware_true\app_prj\app_demo\Debug/../src/Bsp/Driver/hme_gpio.c:265
			ulTemParam = ulTemParam | ulChannels;
   10918:	fec42703          	lw	a4,-20(s0)
   1091c:	fe442783          	lw	a5,-28(s0)
   10920:	00f767b3          	or	a5,a4,a5
   10924:	fef42623          	sw	a5,-20(s0)
D:\CreateIC\01_CPIPC\riscv\RISCV_ENC_20220421\Firmware_true\app_prj\app_demo\Debug/../src/Bsp/Driver/hme_gpio.c:266
			pstGpioObj->pstCtrller->PULLTYPE = ulTemParam;
   10928:	fdc42783          	lw	a5,-36(s0)
   1092c:	0147a783          	lw	a5,20(a5)
   10930:	fec42703          	lw	a4,-20(s0)
   10934:	04e7a223          	sw	a4,68(a5)
D:\CreateIC\01_CPIPC\riscv\RISCV_ENC_20220421\Firmware_true\app_prj\app_demo\Debug/../src/Bsp/Driver/hme_gpio.c:275
}
   10938:	0380006f          	j	10970 <GpioBitsPullCfg+0x19c>
D:\CreateIC\01_CPIPC\riscv\RISCV_ENC_20220421\Firmware_true\app_prj\app_demo\Debug/../src/Bsp/Driver/hme_gpio.c:271
		ulTemParam = pstGpioObj->pstCtrller->PULLEN;
   1093c:	fdc42783          	lw	a5,-36(s0)
   10940:	0147a783          	lw	a5,20(a5)
   10944:	0407a783          	lw	a5,64(a5)
   10948:	fef42623          	sw	a5,-20(s0)
D:\CreateIC\01_CPIPC\riscv\RISCV_ENC_20220421\Firmware_true\app_prj\app_demo\Debug/../src/Bsp/Driver/hme_gpio.c:272
		ulTemParam = ulTemParam & (~ulChannels);
   1094c:	fe442783          	lw	a5,-28(s0)
   10950:	fff7c793          	not	a5,a5
   10954:	fec42703          	lw	a4,-20(s0)
   10958:	00f777b3          	and	a5,a4,a5
   1095c:	fef42623          	sw	a5,-20(s0)
D:\CreateIC\01_CPIPC\riscv\RISCV_ENC_20220421\Firmware_true\app_prj\app_demo\Debug/../src/Bsp/Driver/hme_gpio.c:273
		pstGpioObj->pstCtrller->PULLEN = ulTemParam;
   10960:	fdc42783          	lw	a5,-36(s0)
   10964:	0147a783          	lw	a5,20(a5)
   10968:	fec42703          	lw	a4,-20(s0)
   1096c:	04e7a023          	sw	a4,64(a5)
D:\CreateIC\01_CPIPC\riscv\RISCV_ENC_20220421\Firmware_true\app_prj\app_demo\Debug/../src/Bsp/Driver/hme_gpio.c:275
}
   10970:	00000013          	nop
   10974:	02c12083          	lw	ra,44(sp)
   10978:	02812403          	lw	s0,40(sp)
   1097c:	03010113          	addi	sp,sp,48
   10980:	00008067          	ret

00010984 <GpioBitsDebounceCfg>:
GpioBitsDebounceCfg():
D:\CreateIC\01_CPIPC\riscv\RISCV_ENC_20220421\Firmware_true\app_prj\app_demo\Debug/../src/Bsp/Driver/hme_gpio.c:307
 * @brief  GPIO防抖属性配置
 * @param  pstGpioObj：GPIO设备对象
 * @retval 无
 *****************************************************************/
void GpioBitsDebounceCfg(PST_GPIO_ATTR pstGpioObj)
{
   10984:	fd010113          	addi	sp,sp,-48
   10988:	02112623          	sw	ra,44(sp)
   1098c:	02812423          	sw	s0,40(sp)
   10990:	03010413          	addi	s0,sp,48
   10994:	fca42e23          	sw	a0,-36(s0)
D:\CreateIC\01_CPIPC\riscv\RISCV_ENC_20220421\Firmware_true\app_prj\app_demo\Debug/../src/Bsp/Driver/hme_gpio.c:308
	assert_param(NULL != pstGpioObj);
   10998:	fdc42783          	lw	a5,-36(s0)
   1099c:	00079a63          	bnez	a5,109b0 <GpioBitsDebounceCfg+0x2c>
D:\CreateIC\01_CPIPC\riscv\RISCV_ENC_20220421\Firmware_true\app_prj\app_demo\Debug/../src/Bsp/Driver/hme_gpio.c:308 (discriminator 1)
   109a0:	13400593          	li	a1,308
   109a4:	000157b7          	lui	a5,0x15
   109a8:	06c78513          	addi	a0,a5,108 # 1506c <__init_array_end>
   109ac:	1d5020ef          	jal	ra,13380 <assert_failed>
D:\CreateIC\01_CPIPC\riscv\RISCV_ENC_20220421\Firmware_true\app_prj\app_demo\Debug/../src/Bsp/Driver/hme_gpio.c:309
	assert_param(NULL != pstGpioObj->pstCtrller);
   109b0:	fdc42783          	lw	a5,-36(s0)
   109b4:	0147a783          	lw	a5,20(a5)
   109b8:	00079a63          	bnez	a5,109cc <GpioBitsDebounceCfg+0x48>
D:\CreateIC\01_CPIPC\riscv\RISCV_ENC_20220421\Firmware_true\app_prj\app_demo\Debug/../src/Bsp/Driver/hme_gpio.c:309 (discriminator 1)
   109bc:	13500593          	li	a1,309
   109c0:	000157b7          	lui	a5,0x15
   109c4:	06c78513          	addi	a0,a5,108 # 1506c <__init_array_end>
   109c8:	1b9020ef          	jal	ra,13380 <assert_failed>
D:\CreateIC\01_CPIPC\riscv\RISCV_ENC_20220421\Firmware_true\app_prj\app_demo\Debug/../src/Bsp/Driver/hme_gpio.c:311

	uint32_t ulTemParam = 0;
   109cc:	fe042623          	sw	zero,-20(s0)
D:\CreateIC\01_CPIPC\riscv\RISCV_ENC_20220421\Firmware_true\app_prj\app_demo\Debug/../src/Bsp/Driver/hme_gpio.c:312
	uint8_t  ucDbBounceEn = pstGpioObj->stCfgParam.ucDbBounceEn;
   109d0:	fdc42783          	lw	a5,-36(s0)
   109d4:	0077c783          	lbu	a5,7(a5)
   109d8:	fef405a3          	sb	a5,-21(s0)
D:\CreateIC\01_CPIPC\riscv\RISCV_ENC_20220421\Firmware_true\app_prj\app_demo\Debug/../src/Bsp/Driver/hme_gpio.c:313
	uint8_t  ucDbClkSel   = pstGpioObj->stCfgParam.ucDBClkSel;
   109dc:	fdc42783          	lw	a5,-36(s0)
   109e0:	0087c783          	lbu	a5,8(a5)
   109e4:	fef40523          	sb	a5,-22(s0)
D:\CreateIC\01_CPIPC\riscv\RISCV_ENC_20220421\Firmware_true\app_prj\app_demo\Debug/../src/Bsp/Driver/hme_gpio.c:314
	uint8_t  ucDBPreScale = pstGpioObj->stCfgParam.DBPreScale;
   109e8:	fdc42783          	lw	a5,-36(s0)
   109ec:	0097c783          	lbu	a5,9(a5)
   109f0:	fef404a3          	sb	a5,-23(s0)
D:\CreateIC\01_CPIPC\riscv\RISCV_ENC_20220421\Firmware_true\app_prj\app_demo\Debug/../src/Bsp/Driver/hme_gpio.c:315
	uint32_t ulChannels   = pstGpioObj->stCfgParam.ulChannels;
   109f4:	fdc42783          	lw	a5,-36(s0)
   109f8:	00c7a783          	lw	a5,12(a5)
   109fc:	fef42223          	sw	a5,-28(s0)
D:\CreateIC\01_CPIPC\riscv\RISCV_ENC_20220421\Firmware_true\app_prj\app_demo\Debug/../src/Bsp/Driver/hme_gpio.c:317

	assert_param(IS_GPIO_DIR_TYPE(ucDbBounceEn));
   10a00:	feb44783          	lbu	a5,-21(s0)
   10a04:	02078063          	beqz	a5,10a24 <GpioBitsDebounceCfg+0xa0>
D:\CreateIC\01_CPIPC\riscv\RISCV_ENC_20220421\Firmware_true\app_prj\app_demo\Debug/../src/Bsp/Driver/hme_gpio.c:317 (discriminator 1)
   10a08:	feb44703          	lbu	a4,-21(s0)
   10a0c:	00100793          	li	a5,1
   10a10:	00f70a63          	beq	a4,a5,10a24 <GpioBitsDebounceCfg+0xa0>
D:\CreateIC\01_CPIPC\riscv\RISCV_ENC_20220421\Firmware_true\app_prj\app_demo\Debug/../src/Bsp/Driver/hme_gpio.c:317 (discriminator 2)
   10a14:	13d00593          	li	a1,317
   10a18:	000157b7          	lui	a5,0x15
   10a1c:	06c78513          	addi	a0,a5,108 # 1506c <__init_array_end>
   10a20:	161020ef          	jal	ra,13380 <assert_failed>
D:\CreateIC\01_CPIPC\riscv\RISCV_ENC_20220421\Firmware_true\app_prj\app_demo\Debug/../src/Bsp/Driver/hme_gpio.c:318
    assert_param(IS_GPIO_DBCLK_TYPE(ucDbClkSel));
   10a24:	fea44783          	lbu	a5,-22(s0)
   10a28:	02078063          	beqz	a5,10a48 <GpioBitsDebounceCfg+0xc4>
D:\CreateIC\01_CPIPC\riscv\RISCV_ENC_20220421\Firmware_true\app_prj\app_demo\Debug/../src/Bsp/Driver/hme_gpio.c:318 (discriminator 1)
   10a2c:	fea44703          	lbu	a4,-22(s0)
   10a30:	00100793          	li	a5,1
   10a34:	00f70a63          	beq	a4,a5,10a48 <GpioBitsDebounceCfg+0xc4>
D:\CreateIC\01_CPIPC\riscv\RISCV_ENC_20220421\Firmware_true\app_prj\app_demo\Debug/../src/Bsp/Driver/hme_gpio.c:318 (discriminator 2)
   10a38:	13e00593          	li	a1,318
   10a3c:	000157b7          	lui	a5,0x15
   10a40:	06c78513          	addi	a0,a5,108 # 1506c <__init_array_end>
   10a44:	13d020ef          	jal	ra,13380 <assert_failed>
D:\CreateIC\01_CPIPC\riscv\RISCV_ENC_20220421\Firmware_true\app_prj\app_demo\Debug/../src/Bsp/Driver/hme_gpio.c:321

    //使能Gpio抖动使能和参数配置
	if (ucDbBounceEn == ENABLE)
   10a48:	feb44703          	lbu	a4,-21(s0)
   10a4c:	00100793          	li	a5,1
   10a50:	0af71c63          	bne	a4,a5,10b08 <GpioBitsDebounceCfg+0x184>
D:\CreateIC\01_CPIPC\riscv\RISCV_ENC_20220421\Firmware_true\app_prj\app_demo\Debug/../src/Bsp/Driver/hme_gpio.c:323
	{
		ulTemParam = pstGpioObj->pstCtrller->DEBOUNCECTRL;
   10a54:	fdc42783          	lw	a5,-36(s0)
   10a58:	0147a783          	lw	a5,20(a5)
   10a5c:	0747a783          	lw	a5,116(a5)
   10a60:	fef42623          	sw	a5,-20(s0)
D:\CreateIC\01_CPIPC\riscv\RISCV_ENC_20220421\Firmware_true\app_prj\app_demo\Debug/../src/Bsp/Driver/hme_gpio.c:324
		if (ucDbClkSel == EN_GPIO_DBCLK_TYPE_EXT)
   10a64:	fea44783          	lbu	a5,-22(s0)
   10a68:	02079e63          	bnez	a5,10aa4 <GpioBitsDebounceCfg+0x120>
D:\CreateIC\01_CPIPC\riscv\RISCV_ENC_20220421\Firmware_true\app_prj\app_demo\Debug/../src/Bsp/Driver/hme_gpio.c:326
		{
			ulTemParam = ulTemParam & (~(1 << 31));
   10a6c:	fec42703          	lw	a4,-20(s0)
   10a70:	800007b7          	lui	a5,0x80000
   10a74:	fff7c793          	not	a5,a5
   10a78:	00f777b3          	and	a5,a4,a5
   10a7c:	fef42623          	sw	a5,-20(s0)
D:\CreateIC\01_CPIPC\riscv\RISCV_ENC_20220421\Firmware_true\app_prj\app_demo\Debug/../src/Bsp/Driver/hme_gpio.c:327
			ulTemParam = ulTemParam | ucDBPreScale;
   10a80:	fe944783          	lbu	a5,-23(s0)
   10a84:	fec42703          	lw	a4,-20(s0)
   10a88:	00f767b3          	or	a5,a4,a5
   10a8c:	fef42623          	sw	a5,-20(s0)
D:\CreateIC\01_CPIPC\riscv\RISCV_ENC_20220421\Firmware_true\app_prj\app_demo\Debug/../src/Bsp/Driver/hme_gpio.c:328
			pstGpioObj->pstCtrller->DEBOUNCECTRL = ulTemParam;
   10a90:	fdc42783          	lw	a5,-36(s0)
   10a94:	0147a783          	lw	a5,20(a5) # 80000014 <__freertos_irq_stack_top+0x7ffc1a04>
   10a98:	fec42703          	lw	a4,-20(s0)
   10a9c:	06e7aa23          	sw	a4,116(a5)
   10aa0:	0340006f          	j	10ad4 <GpioBitsDebounceCfg+0x150>
D:\CreateIC\01_CPIPC\riscv\RISCV_ENC_20220421\Firmware_true\app_prj\app_demo\Debug/../src/Bsp/Driver/hme_gpio.c:332
		}
		else
		{
			ulTemParam = ulTemParam | (1 << 31);
   10aa4:	fec42703          	lw	a4,-20(s0)
   10aa8:	800007b7          	lui	a5,0x80000
   10aac:	00f767b3          	or	a5,a4,a5
   10ab0:	fef42623          	sw	a5,-20(s0)
D:\CreateIC\01_CPIPC\riscv\RISCV_ENC_20220421\Firmware_true\app_prj\app_demo\Debug/../src/Bsp/Driver/hme_gpio.c:333
			ulTemParam = ulTemParam | ucDBPreScale;
   10ab4:	fe944783          	lbu	a5,-23(s0)
   10ab8:	fec42703          	lw	a4,-20(s0)
   10abc:	00f767b3          	or	a5,a4,a5
   10ac0:	fef42623          	sw	a5,-20(s0)
D:\CreateIC\01_CPIPC\riscv\RISCV_ENC_20220421\Firmware_true\app_prj\app_demo\Debug/../src/Bsp/Driver/hme_gpio.c:334
			pstGpioObj->pstCtrller->DEBOUNCECTRL = ulTemParam;
   10ac4:	fdc42783          	lw	a5,-36(s0)
   10ac8:	0147a783          	lw	a5,20(a5) # 80000014 <__freertos_irq_stack_top+0x7ffc1a04>
   10acc:	fec42703          	lw	a4,-20(s0)
   10ad0:	06e7aa23          	sw	a4,116(a5)
D:\CreateIC\01_CPIPC\riscv\RISCV_ENC_20220421\Firmware_true\app_prj\app_demo\Debug/../src/Bsp/Driver/hme_gpio.c:338
		}


		ulTemParam = pstGpioObj->pstCtrller->DEBOUNCEEN;
   10ad4:	fdc42783          	lw	a5,-36(s0)
   10ad8:	0147a783          	lw	a5,20(a5)
   10adc:	0707a783          	lw	a5,112(a5)
   10ae0:	fef42623          	sw	a5,-20(s0)
D:\CreateIC\01_CPIPC\riscv\RISCV_ENC_20220421\Firmware_true\app_prj\app_demo\Debug/../src/Bsp/Driver/hme_gpio.c:339
		ulTemParam = ulTemParam | ulChannels;
   10ae4:	fec42703          	lw	a4,-20(s0)
   10ae8:	fe442783          	lw	a5,-28(s0)
   10aec:	00f767b3          	or	a5,a4,a5
   10af0:	fef42623          	sw	a5,-20(s0)
D:\CreateIC\01_CPIPC\riscv\RISCV_ENC_20220421\Firmware_true\app_prj\app_demo\Debug/../src/Bsp/Driver/hme_gpio.c:340
		pstGpioObj->pstCtrller->DEBOUNCEEN = ulTemParam;
   10af4:	fdc42783          	lw	a5,-36(s0)
   10af8:	0147a783          	lw	a5,20(a5)
   10afc:	fec42703          	lw	a4,-20(s0)
   10b00:	06e7a823          	sw	a4,112(a5)
D:\CreateIC\01_CPIPC\riscv\RISCV_ENC_20220421\Firmware_true\app_prj\app_demo\Debug/../src/Bsp/Driver/hme_gpio.c:349
		//禁止GPIO抖动设置
		ulTemParam = pstGpioObj->pstCtrller->DEBOUNCEEN;
		ulTemParam = ulTemParam & (~ulChannels);
		pstGpioObj->pstCtrller->DEBOUNCEEN = ulTemParam;
	}
}
   10b04:	0380006f          	j	10b3c <GpioBitsDebounceCfg+0x1b8>
D:\CreateIC\01_CPIPC\riscv\RISCV_ENC_20220421\Firmware_true\app_prj\app_demo\Debug/../src/Bsp/Driver/hme_gpio.c:345
		ulTemParam = pstGpioObj->pstCtrller->DEBOUNCEEN;
   10b08:	fdc42783          	lw	a5,-36(s0)
   10b0c:	0147a783          	lw	a5,20(a5)
   10b10:	0707a783          	lw	a5,112(a5)
   10b14:	fef42623          	sw	a5,-20(s0)
D:\CreateIC\01_CPIPC\riscv\RISCV_ENC_20220421\Firmware_true\app_prj\app_demo\Debug/../src/Bsp/Driver/hme_gpio.c:346
		ulTemParam = ulTemParam & (~ulChannels);
   10b18:	fe442783          	lw	a5,-28(s0)
   10b1c:	fff7c793          	not	a5,a5
   10b20:	fec42703          	lw	a4,-20(s0)
   10b24:	00f777b3          	and	a5,a4,a5
   10b28:	fef42623          	sw	a5,-20(s0)
D:\CreateIC\01_CPIPC\riscv\RISCV_ENC_20220421\Firmware_true\app_prj\app_demo\Debug/../src/Bsp/Driver/hme_gpio.c:347
		pstGpioObj->pstCtrller->DEBOUNCEEN = ulTemParam;
   10b2c:	fdc42783          	lw	a5,-36(s0)
   10b30:	0147a783          	lw	a5,20(a5)
   10b34:	fec42703          	lw	a4,-20(s0)
   10b38:	06e7a823          	sw	a4,112(a5)
D:\CreateIC\01_CPIPC\riscv\RISCV_ENC_20220421\Firmware_true\app_prj\app_demo\Debug/../src/Bsp/Driver/hme_gpio.c:349
}
   10b3c:	00000013          	nop
   10b40:	02c12083          	lw	ra,44(sp)
   10b44:	02812403          	lw	s0,40(sp)
   10b48:	03010113          	addi	sp,sp,48
   10b4c:	00008067          	ret

00010b50 <GpioBitsIntrCfg>:
GpioBitsIntrCfg():
D:\CreateIC\01_CPIPC\riscv\RISCV_ENC_20220421\Firmware_true\app_prj\app_demo\Debug/../src/Bsp/Driver/hme_gpio.c:382
 * @brief  GPIO中断使能配置
 * @param  pstGpioObj：GPIO设备对象
 * @retval 无
 *****************************************************************/
void GpioBitsIntrCfg(PST_GPIO_ATTR pstGpioObj)
{
   10b50:	fd010113          	addi	sp,sp,-48
   10b54:	02112623          	sw	ra,44(sp)
   10b58:	02812423          	sw	s0,40(sp)
   10b5c:	03010413          	addi	s0,sp,48
   10b60:	fca42e23          	sw	a0,-36(s0)
D:\CreateIC\01_CPIPC\riscv\RISCV_ENC_20220421\Firmware_true\app_prj\app_demo\Debug/../src/Bsp/Driver/hme_gpio.c:383
	assert_param(NULL != pstGpioObj);
   10b64:	fdc42783          	lw	a5,-36(s0)
   10b68:	00079a63          	bnez	a5,10b7c <GpioBitsIntrCfg+0x2c>
D:\CreateIC\01_CPIPC\riscv\RISCV_ENC_20220421\Firmware_true\app_prj\app_demo\Debug/../src/Bsp/Driver/hme_gpio.c:383 (discriminator 1)
   10b6c:	17f00593          	li	a1,383
   10b70:	000157b7          	lui	a5,0x15
   10b74:	06c78513          	addi	a0,a5,108 # 1506c <__init_array_end>
   10b78:	009020ef          	jal	ra,13380 <assert_failed>
D:\CreateIC\01_CPIPC\riscv\RISCV_ENC_20220421\Firmware_true\app_prj\app_demo\Debug/../src/Bsp/Driver/hme_gpio.c:384
	assert_param(NULL != pstGpioObj->pstCtrller);
   10b7c:	fdc42783          	lw	a5,-36(s0)
   10b80:	0147a783          	lw	a5,20(a5)
   10b84:	00079a63          	bnez	a5,10b98 <GpioBitsIntrCfg+0x48>
D:\CreateIC\01_CPIPC\riscv\RISCV_ENC_20220421\Firmware_true\app_prj\app_demo\Debug/../src/Bsp/Driver/hme_gpio.c:384 (discriminator 1)
   10b88:	18000593          	li	a1,384
   10b8c:	000157b7          	lui	a5,0x15
   10b90:	06c78513          	addi	a0,a5,108 # 1506c <__init_array_end>
   10b94:	7ec020ef          	jal	ra,13380 <assert_failed>
D:\CreateIC\01_CPIPC\riscv\RISCV_ENC_20220421\Firmware_true\app_prj\app_demo\Debug/../src/Bsp/Driver/hme_gpio.c:386

	uint32_t ulCount = 0;
   10b98:	fe042623          	sw	zero,-20(s0)
D:\CreateIC\01_CPIPC\riscv\RISCV_ENC_20220421\Firmware_true\app_prj\app_demo\Debug/../src/Bsp/Driver/hme_gpio.c:387
	uint32_t ulTemParam = 0;
   10b9c:	fe042423          	sw	zero,-24(s0)
D:\CreateIC\01_CPIPC\riscv\RISCV_ENC_20220421\Firmware_true\app_prj\app_demo\Debug/../src/Bsp/Driver/hme_gpio.c:388
	uint8_t  ucIntrEnFlag = pstGpioObj->stCfgParam.ucIntrEn;
   10ba0:	fdc42783          	lw	a5,-36(s0)
   10ba4:	0037c783          	lbu	a5,3(a5)
   10ba8:	fef403a3          	sb	a5,-25(s0)
D:\CreateIC\01_CPIPC\riscv\RISCV_ENC_20220421\Firmware_true\app_prj\app_demo\Debug/../src/Bsp/Driver/hme_gpio.c:389
	uint8_t  ucIntrMode   = pstGpioObj->stCfgParam.ucIntrMode;
   10bac:	fdc42783          	lw	a5,-36(s0)
   10bb0:	0047c783          	lbu	a5,4(a5)
   10bb4:	fef40323          	sb	a5,-26(s0)
D:\CreateIC\01_CPIPC\riscv\RISCV_ENC_20220421\Firmware_true\app_prj\app_demo\Debug/../src/Bsp/Driver/hme_gpio.c:390
	uint32_t ulChannels   = pstGpioObj->stCfgParam.ulChannels;
   10bb8:	fdc42783          	lw	a5,-36(s0)
   10bbc:	00c7a783          	lw	a5,12(a5)
   10bc0:	fef42023          	sw	a5,-32(s0)
D:\CreateIC\01_CPIPC\riscv\RISCV_ENC_20220421\Firmware_true\app_prj\app_demo\Debug/../src/Bsp/Driver/hme_gpio.c:392

	assert_param(IS_GPIO_ENABLE_TYPE(ucIntrEnFlag));
   10bc4:	fe744783          	lbu	a5,-25(s0)
   10bc8:	02078063          	beqz	a5,10be8 <GpioBitsIntrCfg+0x98>
D:\CreateIC\01_CPIPC\riscv\RISCV_ENC_20220421\Firmware_true\app_prj\app_demo\Debug/../src/Bsp/Driver/hme_gpio.c:392 (discriminator 1)
   10bcc:	fe744703          	lbu	a4,-25(s0)
   10bd0:	00100793          	li	a5,1
   10bd4:	00f70a63          	beq	a4,a5,10be8 <GpioBitsIntrCfg+0x98>
D:\CreateIC\01_CPIPC\riscv\RISCV_ENC_20220421\Firmware_true\app_prj\app_demo\Debug/../src/Bsp/Driver/hme_gpio.c:392 (discriminator 2)
   10bd8:	18800593          	li	a1,392
   10bdc:	000157b7          	lui	a5,0x15
   10be0:	06c78513          	addi	a0,a5,108 # 1506c <__init_array_end>
   10be4:	79c020ef          	jal	ra,13380 <assert_failed>
D:\CreateIC\01_CPIPC\riscv\RISCV_ENC_20220421\Firmware_true\app_prj\app_demo\Debug/../src/Bsp/Driver/hme_gpio.c:393
	assert_param(IS_GPIO_INTR_MODE(ucIntrMode));
   10be8:	fe644783          	lbu	a5,-26(s0)
   10bec:	04078863          	beqz	a5,10c3c <GpioBitsIntrCfg+0xec>
D:\CreateIC\01_CPIPC\riscv\RISCV_ENC_20220421\Firmware_true\app_prj\app_demo\Debug/../src/Bsp/Driver/hme_gpio.c:393 (discriminator 1)
   10bf0:	fe644703          	lbu	a4,-26(s0)
   10bf4:	00200793          	li	a5,2
   10bf8:	04f70263          	beq	a4,a5,10c3c <GpioBitsIntrCfg+0xec>
D:\CreateIC\01_CPIPC\riscv\RISCV_ENC_20220421\Firmware_true\app_prj\app_demo\Debug/../src/Bsp/Driver/hme_gpio.c:393 (discriminator 2)
   10bfc:	fe644703          	lbu	a4,-26(s0)
   10c00:	00300793          	li	a5,3
   10c04:	02f70c63          	beq	a4,a5,10c3c <GpioBitsIntrCfg+0xec>
D:\CreateIC\01_CPIPC\riscv\RISCV_ENC_20220421\Firmware_true\app_prj\app_demo\Debug/../src/Bsp/Driver/hme_gpio.c:393 (discriminator 3)
   10c08:	fe644703          	lbu	a4,-26(s0)
   10c0c:	00500793          	li	a5,5
   10c10:	02f70663          	beq	a4,a5,10c3c <GpioBitsIntrCfg+0xec>
D:\CreateIC\01_CPIPC\riscv\RISCV_ENC_20220421\Firmware_true\app_prj\app_demo\Debug/../src/Bsp/Driver/hme_gpio.c:393 (discriminator 4)
   10c14:	fe644703          	lbu	a4,-26(s0)
   10c18:	00600793          	li	a5,6
   10c1c:	02f70063          	beq	a4,a5,10c3c <GpioBitsIntrCfg+0xec>
D:\CreateIC\01_CPIPC\riscv\RISCV_ENC_20220421\Firmware_true\app_prj\app_demo\Debug/../src/Bsp/Driver/hme_gpio.c:393 (discriminator 5)
   10c20:	fe644703          	lbu	a4,-26(s0)
   10c24:	00700793          	li	a5,7
   10c28:	00f70a63          	beq	a4,a5,10c3c <GpioBitsIntrCfg+0xec>
D:\CreateIC\01_CPIPC\riscv\RISCV_ENC_20220421\Firmware_true\app_prj\app_demo\Debug/../src/Bsp/Driver/hme_gpio.c:393 (discriminator 6)
   10c2c:	18900593          	li	a1,393
   10c30:	000157b7          	lui	a5,0x15
   10c34:	06c78513          	addi	a0,a5,108 # 1506c <__init_array_end>
   10c38:	748020ef          	jal	ra,13380 <assert_failed>
D:\CreateIC\01_CPIPC\riscv\RISCV_ENC_20220421\Firmware_true\app_prj\app_demo\Debug/../src/Bsp/Driver/hme_gpio.c:395

	if (ucIntrEnFlag == ENABLE)
   10c3c:	fe744703          	lbu	a4,-25(s0)
   10c40:	00100793          	li	a5,1
   10c44:	1cf71463          	bne	a4,a5,10e0c <GpioBitsIntrCfg+0x2bc>
D:\CreateIC\01_CPIPC\riscv\RISCV_ENC_20220421\Firmware_true\app_prj\app_demo\Debug/../src/Bsp/Driver/hme_gpio.c:398
	{
        //GPIO设备中断使能配置
		ulTemParam = pstGpioObj->pstCtrller->INTREN;
   10c48:	fdc42783          	lw	a5,-36(s0)
   10c4c:	0147a783          	lw	a5,20(a5)
   10c50:	0507a783          	lw	a5,80(a5)
   10c54:	fef42423          	sw	a5,-24(s0)
D:\CreateIC\01_CPIPC\riscv\RISCV_ENC_20220421\Firmware_true\app_prj\app_demo\Debug/../src/Bsp/Driver/hme_gpio.c:399
		ulTemParam = ulTemParam | ulChannels;
   10c58:	fe842703          	lw	a4,-24(s0)
   10c5c:	fe042783          	lw	a5,-32(s0)
   10c60:	00f767b3          	or	a5,a4,a5
   10c64:	fef42423          	sw	a5,-24(s0)
D:\CreateIC\01_CPIPC\riscv\RISCV_ENC_20220421\Firmware_true\app_prj\app_demo\Debug/../src/Bsp/Driver/hme_gpio.c:400
		pstGpioObj->pstCtrller->INTREN = ulTemParam;
   10c68:	fdc42783          	lw	a5,-36(s0)
   10c6c:	0147a783          	lw	a5,20(a5)
   10c70:	fe842703          	lw	a4,-24(s0)
   10c74:	04e7a823          	sw	a4,80(a5)
D:\CreateIC\01_CPIPC\riscv\RISCV_ENC_20220421\Firmware_true\app_prj\app_demo\Debug/../src/Bsp/Driver/hme_gpio.c:401
		for (ulCount = 0; ulCount < 32; ulCount++)
   10c78:	fe042623          	sw	zero,-20(s0)
   10c7c:	1800006f          	j	10dfc <GpioBitsIntrCfg+0x2ac>
D:\CreateIC\01_CPIPC\riscv\RISCV_ENC_20220421\Firmware_true\app_prj\app_demo\Debug/../src/Bsp/Driver/hme_gpio.c:403
		{
			if (ulChannels & (1 << ulCount))
   10c80:	fec42783          	lw	a5,-20(s0)
   10c84:	00100713          	li	a4,1
   10c88:	00f717b3          	sll	a5,a4,a5
   10c8c:	00078713          	mv	a4,a5
   10c90:	fe042783          	lw	a5,-32(s0)
   10c94:	00f777b3          	and	a5,a4,a5
   10c98:	14078c63          	beqz	a5,10df0 <GpioBitsIntrCfg+0x2a0>
D:\CreateIC\01_CPIPC\riscv\RISCV_ENC_20220421\Firmware_true\app_prj\app_demo\Debug/../src/Bsp/Driver/hme_gpio.c:405
			{
				if (ulCount < 8)
   10c9c:	fec42703          	lw	a4,-20(s0)
   10ca0:	00700793          	li	a5,7
   10ca4:	04e7e463          	bltu	a5,a4,10cec <GpioBitsIntrCfg+0x19c>
D:\CreateIC\01_CPIPC\riscv\RISCV_ENC_20220421\Firmware_true\app_prj\app_demo\Debug/../src/Bsp/Driver/hme_gpio.c:407
				{
					ulTemParam = pstGpioObj->pstCtrller->INTRMODE0;
   10ca8:	fdc42783          	lw	a5,-36(s0)
   10cac:	0147a783          	lw	a5,20(a5)
   10cb0:	0547a783          	lw	a5,84(a5)
   10cb4:	fef42423          	sw	a5,-24(s0)
D:\CreateIC\01_CPIPC\riscv\RISCV_ENC_20220421\Firmware_true\app_prj\app_demo\Debug/../src/Bsp/Driver/hme_gpio.c:408
					ulTemParam = ulTemParam | (ucIntrMode << (ulCount * 4));
   10cb8:	fe644703          	lbu	a4,-26(s0)
   10cbc:	fec42783          	lw	a5,-20(s0)
   10cc0:	00279793          	slli	a5,a5,0x2
   10cc4:	00f717b3          	sll	a5,a4,a5
   10cc8:	00078713          	mv	a4,a5
   10ccc:	fe842783          	lw	a5,-24(s0)
   10cd0:	00e7e7b3          	or	a5,a5,a4
   10cd4:	fef42423          	sw	a5,-24(s0)
D:\CreateIC\01_CPIPC\riscv\RISCV_ENC_20220421\Firmware_true\app_prj\app_demo\Debug/../src/Bsp/Driver/hme_gpio.c:409
					pstGpioObj->pstCtrller->INTRMODE0 = ulTemParam;
   10cd8:	fdc42783          	lw	a5,-36(s0)
   10cdc:	0147a783          	lw	a5,20(a5)
   10ce0:	fe842703          	lw	a4,-24(s0)
   10ce4:	04e7aa23          	sw	a4,84(a5)
   10ce8:	1080006f          	j	10df0 <GpioBitsIntrCfg+0x2a0>
D:\CreateIC\01_CPIPC\riscv\RISCV_ENC_20220421\Firmware_true\app_prj\app_demo\Debug/../src/Bsp/Driver/hme_gpio.c:411
				}
				else if (ulCount < 16)
   10cec:	fec42703          	lw	a4,-20(s0)
   10cf0:	00f00793          	li	a5,15
   10cf4:	04e7ea63          	bltu	a5,a4,10d48 <GpioBitsIntrCfg+0x1f8>
D:\CreateIC\01_CPIPC\riscv\RISCV_ENC_20220421\Firmware_true\app_prj\app_demo\Debug/../src/Bsp/Driver/hme_gpio.c:413
				{
					ulTemParam = pstGpioObj->pstCtrller->INTRMODE1;
   10cf8:	fdc42783          	lw	a5,-36(s0)
   10cfc:	0147a783          	lw	a5,20(a5)
   10d00:	0587a783          	lw	a5,88(a5)
   10d04:	fef42423          	sw	a5,-24(s0)
D:\CreateIC\01_CPIPC\riscv\RISCV_ENC_20220421\Firmware_true\app_prj\app_demo\Debug/../src/Bsp/Driver/hme_gpio.c:414
					ulTemParam = ulTemParam | (ucIntrMode << ((ulCount - 8) * 4));
   10d08:	fe644703          	lbu	a4,-26(s0)
   10d0c:	fec42683          	lw	a3,-20(s0)
   10d10:	400007b7          	lui	a5,0x40000
   10d14:	ff878793          	addi	a5,a5,-8 # 3ffffff8 <__freertos_irq_stack_top+0x3ffc19e8>
   10d18:	00f687b3          	add	a5,a3,a5
   10d1c:	00279793          	slli	a5,a5,0x2
   10d20:	00f717b3          	sll	a5,a4,a5
   10d24:	00078713          	mv	a4,a5
   10d28:	fe842783          	lw	a5,-24(s0)
   10d2c:	00e7e7b3          	or	a5,a5,a4
   10d30:	fef42423          	sw	a5,-24(s0)
D:\CreateIC\01_CPIPC\riscv\RISCV_ENC_20220421\Firmware_true\app_prj\app_demo\Debug/../src/Bsp/Driver/hme_gpio.c:415
					pstGpioObj->pstCtrller->INTRMODE0 = ulTemParam;
   10d34:	fdc42783          	lw	a5,-36(s0)
   10d38:	0147a783          	lw	a5,20(a5)
   10d3c:	fe842703          	lw	a4,-24(s0)
   10d40:	04e7aa23          	sw	a4,84(a5)
   10d44:	0ac0006f          	j	10df0 <GpioBitsIntrCfg+0x2a0>
D:\CreateIC\01_CPIPC\riscv\RISCV_ENC_20220421\Firmware_true\app_prj\app_demo\Debug/../src/Bsp/Driver/hme_gpio.c:417
				}
				else if (ulCount < 24)
   10d48:	fec42703          	lw	a4,-20(s0)
   10d4c:	01700793          	li	a5,23
   10d50:	04e7ea63          	bltu	a5,a4,10da4 <GpioBitsIntrCfg+0x254>
D:\CreateIC\01_CPIPC\riscv\RISCV_ENC_20220421\Firmware_true\app_prj\app_demo\Debug/../src/Bsp/Driver/hme_gpio.c:419
				{
					ulTemParam = pstGpioObj->pstCtrller->INTRMODE2;
   10d54:	fdc42783          	lw	a5,-36(s0)
   10d58:	0147a783          	lw	a5,20(a5)
   10d5c:	05c7a783          	lw	a5,92(a5)
   10d60:	fef42423          	sw	a5,-24(s0)
D:\CreateIC\01_CPIPC\riscv\RISCV_ENC_20220421\Firmware_true\app_prj\app_demo\Debug/../src/Bsp/Driver/hme_gpio.c:420
					ulTemParam = ulTemParam | (ucIntrMode << ((ulCount - 16) * 4));
   10d64:	fe644703          	lbu	a4,-26(s0)
   10d68:	fec42683          	lw	a3,-20(s0)
   10d6c:	400007b7          	lui	a5,0x40000
   10d70:	ff078793          	addi	a5,a5,-16 # 3ffffff0 <__freertos_irq_stack_top+0x3ffc19e0>
   10d74:	00f687b3          	add	a5,a3,a5
   10d78:	00279793          	slli	a5,a5,0x2
   10d7c:	00f717b3          	sll	a5,a4,a5
   10d80:	00078713          	mv	a4,a5
   10d84:	fe842783          	lw	a5,-24(s0)
   10d88:	00e7e7b3          	or	a5,a5,a4
   10d8c:	fef42423          	sw	a5,-24(s0)
D:\CreateIC\01_CPIPC\riscv\RISCV_ENC_20220421\Firmware_true\app_prj\app_demo\Debug/../src/Bsp/Driver/hme_gpio.c:421
					pstGpioObj->pstCtrller->INTRMODE0 = ulTemParam;
   10d90:	fdc42783          	lw	a5,-36(s0)
   10d94:	0147a783          	lw	a5,20(a5)
   10d98:	fe842703          	lw	a4,-24(s0)
   10d9c:	04e7aa23          	sw	a4,84(a5)
   10da0:	0500006f          	j	10df0 <GpioBitsIntrCfg+0x2a0>
D:\CreateIC\01_CPIPC\riscv\RISCV_ENC_20220421\Firmware_true\app_prj\app_demo\Debug/../src/Bsp/Driver/hme_gpio.c:425
				}
				else
				{
					ulTemParam = pstGpioObj->pstCtrller->INTRMODE3;
   10da4:	fdc42783          	lw	a5,-36(s0)
   10da8:	0147a783          	lw	a5,20(a5)
   10dac:	0607a783          	lw	a5,96(a5)
   10db0:	fef42423          	sw	a5,-24(s0)
D:\CreateIC\01_CPIPC\riscv\RISCV_ENC_20220421\Firmware_true\app_prj\app_demo\Debug/../src/Bsp/Driver/hme_gpio.c:426
					ulTemParam = ulTemParam | (ucIntrMode << ((ulCount - 24) * 4));
   10db4:	fe644703          	lbu	a4,-26(s0)
   10db8:	fec42683          	lw	a3,-20(s0)
   10dbc:	400007b7          	lui	a5,0x40000
   10dc0:	fe878793          	addi	a5,a5,-24 # 3fffffe8 <__freertos_irq_stack_top+0x3ffc19d8>
   10dc4:	00f687b3          	add	a5,a3,a5
   10dc8:	00279793          	slli	a5,a5,0x2
   10dcc:	00f717b3          	sll	a5,a4,a5
   10dd0:	00078713          	mv	a4,a5
   10dd4:	fe842783          	lw	a5,-24(s0)
   10dd8:	00e7e7b3          	or	a5,a5,a4
   10ddc:	fef42423          	sw	a5,-24(s0)
D:\CreateIC\01_CPIPC\riscv\RISCV_ENC_20220421\Firmware_true\app_prj\app_demo\Debug/../src/Bsp/Driver/hme_gpio.c:427
					pstGpioObj->pstCtrller->INTRMODE0 = ulTemParam;
   10de0:	fdc42783          	lw	a5,-36(s0)
   10de4:	0147a783          	lw	a5,20(a5)
   10de8:	fe842703          	lw	a4,-24(s0)
   10dec:	04e7aa23          	sw	a4,84(a5)
D:\CreateIC\01_CPIPC\riscv\RISCV_ENC_20220421\Firmware_true\app_prj\app_demo\Debug/../src/Bsp/Driver/hme_gpio.c:401 (discriminator 2)
		for (ulCount = 0; ulCount < 32; ulCount++)
   10df0:	fec42783          	lw	a5,-20(s0)
   10df4:	00178793          	addi	a5,a5,1
   10df8:	fef42623          	sw	a5,-20(s0)
D:\CreateIC\01_CPIPC\riscv\RISCV_ENC_20220421\Firmware_true\app_prj\app_demo\Debug/../src/Bsp/Driver/hme_gpio.c:401 (discriminator 1)
   10dfc:	fec42703          	lw	a4,-20(s0)
   10e00:	01f00793          	li	a5,31
   10e04:	e6e7fee3          	bgeu	a5,a4,10c80 <GpioBitsIntrCfg+0x130>
D:\CreateIC\01_CPIPC\riscv\RISCV_ENC_20220421\Firmware_true\app_prj\app_demo\Debug/../src/Bsp/Driver/hme_gpio.c:437
	else
	{
		/***中断对应位禁止使能***/
		GpioBitsIntrDisable(pstGpioObj);
	}
}
   10e08:	00c0006f          	j	10e14 <GpioBitsIntrCfg+0x2c4>
D:\CreateIC\01_CPIPC\riscv\RISCV_ENC_20220421\Firmware_true\app_prj\app_demo\Debug/../src/Bsp/Driver/hme_gpio.c:435
		GpioBitsIntrDisable(pstGpioObj);
   10e0c:	fdc42503          	lw	a0,-36(s0)
   10e10:	018000ef          	jal	ra,10e28 <GpioBitsIntrDisable>
D:\CreateIC\01_CPIPC\riscv\RISCV_ENC_20220421\Firmware_true\app_prj\app_demo\Debug/../src/Bsp/Driver/hme_gpio.c:437
}
   10e14:	00000013          	nop
   10e18:	02c12083          	lw	ra,44(sp)
   10e1c:	02812403          	lw	s0,40(sp)
   10e20:	03010113          	addi	sp,sp,48
   10e24:	00008067          	ret

00010e28 <GpioBitsIntrDisable>:
GpioBitsIntrDisable():
D:\CreateIC\01_CPIPC\riscv\RISCV_ENC_20220421\Firmware_true\app_prj\app_demo\Debug/../src/Bsp/Driver/hme_gpio.c:500
 * @brief  GPIO中断禁止
 * @param  pstGpioObj：GPIO设备对象
 * @retval 无
 *****************************************************************/
void GpioBitsIntrDisable(PST_GPIO_ATTR pstGpioObj)
{
   10e28:	fd010113          	addi	sp,sp,-48
   10e2c:	02112623          	sw	ra,44(sp)
   10e30:	02812423          	sw	s0,40(sp)
   10e34:	03010413          	addi	s0,sp,48
   10e38:	fca42e23          	sw	a0,-36(s0)
D:\CreateIC\01_CPIPC\riscv\RISCV_ENC_20220421\Firmware_true\app_prj\app_demo\Debug/../src/Bsp/Driver/hme_gpio.c:501
	assert_param(NULL != pstGpioObj);
   10e3c:	fdc42783          	lw	a5,-36(s0)
   10e40:	00079a63          	bnez	a5,10e54 <GpioBitsIntrDisable+0x2c>
D:\CreateIC\01_CPIPC\riscv\RISCV_ENC_20220421\Firmware_true\app_prj\app_demo\Debug/../src/Bsp/Driver/hme_gpio.c:501 (discriminator 1)
   10e44:	1f500593          	li	a1,501
   10e48:	000157b7          	lui	a5,0x15
   10e4c:	06c78513          	addi	a0,a5,108 # 1506c <__init_array_end>
   10e50:	530020ef          	jal	ra,13380 <assert_failed>
D:\CreateIC\01_CPIPC\riscv\RISCV_ENC_20220421\Firmware_true\app_prj\app_demo\Debug/../src/Bsp/Driver/hme_gpio.c:502
	assert_param(NULL != pstGpioObj->pstCtrller);
   10e54:	fdc42783          	lw	a5,-36(s0)
   10e58:	0147a783          	lw	a5,20(a5)
   10e5c:	00079a63          	bnez	a5,10e70 <GpioBitsIntrDisable+0x48>
D:\CreateIC\01_CPIPC\riscv\RISCV_ENC_20220421\Firmware_true\app_prj\app_demo\Debug/../src/Bsp/Driver/hme_gpio.c:502 (discriminator 1)
   10e60:	1f600593          	li	a1,502
   10e64:	000157b7          	lui	a5,0x15
   10e68:	06c78513          	addi	a0,a5,108 # 1506c <__init_array_end>
   10e6c:	514020ef          	jal	ra,13380 <assert_failed>
D:\CreateIC\01_CPIPC\riscv\RISCV_ENC_20220421\Firmware_true\app_prj\app_demo\Debug/../src/Bsp/Driver/hme_gpio.c:504

	uint32_t ulTemParam = 0;
   10e70:	fe042623          	sw	zero,-20(s0)
D:\CreateIC\01_CPIPC\riscv\RISCV_ENC_20220421\Firmware_true\app_prj\app_demo\Debug/../src/Bsp/Driver/hme_gpio.c:505
	uint32_t ulChannels = pstGpioObj->stCfgParam.ulChannels;
   10e74:	fdc42783          	lw	a5,-36(s0)
   10e78:	00c7a783          	lw	a5,12(a5)
   10e7c:	fef42423          	sw	a5,-24(s0)
D:\CreateIC\01_CPIPC\riscv\RISCV_ENC_20220421\Firmware_true\app_prj\app_demo\Debug/../src/Bsp/Driver/hme_gpio.c:507

	ulTemParam = pstGpioObj->pstCtrller->INTREN;
   10e80:	fdc42783          	lw	a5,-36(s0)
   10e84:	0147a783          	lw	a5,20(a5)
   10e88:	0507a783          	lw	a5,80(a5)
   10e8c:	fef42623          	sw	a5,-20(s0)
D:\CreateIC\01_CPIPC\riscv\RISCV_ENC_20220421\Firmware_true\app_prj\app_demo\Debug/../src/Bsp/Driver/hme_gpio.c:508
	ulTemParam = ulTemParam & (~ulChannels);
   10e90:	fe842783          	lw	a5,-24(s0)
   10e94:	fff7c793          	not	a5,a5
   10e98:	fec42703          	lw	a4,-20(s0)
   10e9c:	00f777b3          	and	a5,a4,a5
   10ea0:	fef42623          	sw	a5,-20(s0)
D:\CreateIC\01_CPIPC\riscv\RISCV_ENC_20220421\Firmware_true\app_prj\app_demo\Debug/../src/Bsp/Driver/hme_gpio.c:509
	pstGpioObj->pstCtrller->INTREN = ulTemParam;
   10ea4:	fdc42783          	lw	a5,-36(s0)
   10ea8:	0147a783          	lw	a5,20(a5)
   10eac:	fec42703          	lw	a4,-20(s0)
   10eb0:	04e7a823          	sw	a4,80(a5)
D:\CreateIC\01_CPIPC\riscv\RISCV_ENC_20220421\Firmware_true\app_prj\app_demo\Debug/../src/Bsp/Driver/hme_gpio.c:510
}
   10eb4:	00000013          	nop
   10eb8:	02c12083          	lw	ra,44(sp)
   10ebc:	02812403          	lw	s0,40(sp)
   10ec0:	03010113          	addi	sp,sp,48
   10ec4:	00008067          	ret

00010ec8 <GpioIntrStateGet>:
GpioIntrStateGet():
D:\CreateIC\01_CPIPC\riscv\RISCV_ENC_20220421\Firmware_true\app_prj\app_demo\Debug/../src/Bsp/Driver/hme_gpio.c:518
 * @brief  GPIO中断状态获取
 * @param  pstGpioObj：GPIO设备对象
 * @retval 无
 *****************************************************************/
uint32_t GpioIntrStateGet(PST_GPIO_ATTR pstGpioObj)
{
   10ec8:	fe010113          	addi	sp,sp,-32
   10ecc:	00112e23          	sw	ra,28(sp)
   10ed0:	00812c23          	sw	s0,24(sp)
   10ed4:	02010413          	addi	s0,sp,32
   10ed8:	fea42623          	sw	a0,-20(s0)
D:\CreateIC\01_CPIPC\riscv\RISCV_ENC_20220421\Firmware_true\app_prj\app_demo\Debug/../src/Bsp/Driver/hme_gpio.c:519
	assert_param(NULL != pstGpioObj);
   10edc:	fec42783          	lw	a5,-20(s0)
   10ee0:	00079a63          	bnez	a5,10ef4 <GpioIntrStateGet+0x2c>
D:\CreateIC\01_CPIPC\riscv\RISCV_ENC_20220421\Firmware_true\app_prj\app_demo\Debug/../src/Bsp/Driver/hme_gpio.c:519 (discriminator 1)
   10ee4:	20700593          	li	a1,519
   10ee8:	000157b7          	lui	a5,0x15
   10eec:	06c78513          	addi	a0,a5,108 # 1506c <__init_array_end>
   10ef0:	490020ef          	jal	ra,13380 <assert_failed>
D:\CreateIC\01_CPIPC\riscv\RISCV_ENC_20220421\Firmware_true\app_prj\app_demo\Debug/../src/Bsp/Driver/hme_gpio.c:520
	assert_param(NULL != pstGpioObj->pstCtrller);
   10ef4:	fec42783          	lw	a5,-20(s0)
   10ef8:	0147a783          	lw	a5,20(a5)
   10efc:	00079a63          	bnez	a5,10f10 <GpioIntrStateGet+0x48>
D:\CreateIC\01_CPIPC\riscv\RISCV_ENC_20220421\Firmware_true\app_prj\app_demo\Debug/../src/Bsp/Driver/hme_gpio.c:520 (discriminator 1)
   10f00:	20800593          	li	a1,520
   10f04:	000157b7          	lui	a5,0x15
   10f08:	06c78513          	addi	a0,a5,108 # 1506c <__init_array_end>
   10f0c:	474020ef          	jal	ra,13380 <assert_failed>
D:\CreateIC\01_CPIPC\riscv\RISCV_ENC_20220421\Firmware_true\app_prj\app_demo\Debug/../src/Bsp/Driver/hme_gpio.c:522

	return pstGpioObj->pstCtrller->INTRSTATUS;
   10f10:	fec42783          	lw	a5,-20(s0)
   10f14:	0147a783          	lw	a5,20(a5)
   10f18:	0647a783          	lw	a5,100(a5)
D:\CreateIC\01_CPIPC\riscv\RISCV_ENC_20220421\Firmware_true\app_prj\app_demo\Debug/../src/Bsp/Driver/hme_gpio.c:523
}
   10f1c:	00078513          	mv	a0,a5
   10f20:	01c12083          	lw	ra,28(sp)
   10f24:	01812403          	lw	s0,24(sp)
   10f28:	02010113          	addi	sp,sp,32
   10f2c:	00008067          	ret

00010f30 <GpioIntrStateClear>:
GpioIntrStateClear():
D:\CreateIC\01_CPIPC\riscv\RISCV_ENC_20220421\Firmware_true\app_prj\app_demo\Debug/../src/Bsp/Driver/hme_gpio.c:531
 * @brief  GPIO中断状态清除
 * @param  pstGpioObj：GPIO设备对象，ulIntrClearParam：中断清除端口参数
 * @retval 无
 *****************************************************************/
void GpioIntrStateClear(PST_GPIO_ATTR pstGpioObj, uint32_t ulIntrClearParam)
{
   10f30:	fe010113          	addi	sp,sp,-32
   10f34:	00112e23          	sw	ra,28(sp)
   10f38:	00812c23          	sw	s0,24(sp)
   10f3c:	02010413          	addi	s0,sp,32
   10f40:	fea42623          	sw	a0,-20(s0)
   10f44:	feb42423          	sw	a1,-24(s0)
D:\CreateIC\01_CPIPC\riscv\RISCV_ENC_20220421\Firmware_true\app_prj\app_demo\Debug/../src/Bsp/Driver/hme_gpio.c:532
	assert_param(NULL != pstGpioObj);
   10f48:	fec42783          	lw	a5,-20(s0)
   10f4c:	00079a63          	bnez	a5,10f60 <GpioIntrStateClear+0x30>
D:\CreateIC\01_CPIPC\riscv\RISCV_ENC_20220421\Firmware_true\app_prj\app_demo\Debug/../src/Bsp/Driver/hme_gpio.c:532 (discriminator 1)
   10f50:	21400593          	li	a1,532
   10f54:	000157b7          	lui	a5,0x15
   10f58:	06c78513          	addi	a0,a5,108 # 1506c <__init_array_end>
   10f5c:	424020ef          	jal	ra,13380 <assert_failed>
D:\CreateIC\01_CPIPC\riscv\RISCV_ENC_20220421\Firmware_true\app_prj\app_demo\Debug/../src/Bsp/Driver/hme_gpio.c:533
	assert_param(NULL != pstGpioObj->pstCtrller);
   10f60:	fec42783          	lw	a5,-20(s0)
   10f64:	0147a783          	lw	a5,20(a5)
   10f68:	00079a63          	bnez	a5,10f7c <GpioIntrStateClear+0x4c>
D:\CreateIC\01_CPIPC\riscv\RISCV_ENC_20220421\Firmware_true\app_prj\app_demo\Debug/../src/Bsp/Driver/hme_gpio.c:533 (discriminator 1)
   10f6c:	21500593          	li	a1,533
   10f70:	000157b7          	lui	a5,0x15
   10f74:	06c78513          	addi	a0,a5,108 # 1506c <__init_array_end>
   10f78:	408020ef          	jal	ra,13380 <assert_failed>
D:\CreateIC\01_CPIPC\riscv\RISCV_ENC_20220421\Firmware_true\app_prj\app_demo\Debug/../src/Bsp/Driver/hme_gpio.c:535

    pstGpioObj->pstCtrller->INTRSTATUS = ulIntrClearParam;
   10f7c:	fec42783          	lw	a5,-20(s0)
   10f80:	0147a783          	lw	a5,20(a5)
   10f84:	fe842703          	lw	a4,-24(s0)
   10f88:	06e7a223          	sw	a4,100(a5)
D:\CreateIC\01_CPIPC\riscv\RISCV_ENC_20220421\Firmware_true\app_prj\app_demo\Debug/../src/Bsp/Driver/hme_gpio.c:536
}
   10f8c:	00000013          	nop
   10f90:	01c12083          	lw	ra,28(sp)
   10f94:	01812403          	lw	s0,24(sp)
   10f98:	02010113          	addi	sp,sp,32
   10f9c:	00008067          	ret

00010fa0 <PlicGpioHandle>:
PlicGpioHandle():
D:\CreateIC\01_CPIPC\riscv\RISCV_ENC_20220421\Firmware_true\app_prj\app_demo\Debug/../src/Bsp/Driver/hme_gpio.c:544
 * @brief  GPIO中断处理接口
 * @param  ptrBackCall：回调参数
 * @retval 无
 *****************************************************************/
void PlicGpioHandle(void * ptrBackCall)
{
   10fa0:	fd010113          	addi	sp,sp,-48
   10fa4:	02112623          	sw	ra,44(sp)
   10fa8:	02812423          	sw	s0,40(sp)
   10fac:	03010413          	addi	s0,sp,48
   10fb0:	fca42e23          	sw	a0,-36(s0)
D:\CreateIC\01_CPIPC\riscv\RISCV_ENC_20220421\Firmware_true\app_prj\app_demo\Debug/../src/Bsp/Driver/hme_gpio.c:545
	uint32_t ulIntrState = 0;
   10fb4:	fe042623          	sw	zero,-20(s0)
D:\CreateIC\01_CPIPC\riscv\RISCV_ENC_20220421\Firmware_true\app_prj\app_demo\Debug/../src/Bsp/Driver/hme_gpio.c:546
	PST_GPIO_ATTR ptrGpioObj = NULL;
   10fb8:	fe042423          	sw	zero,-24(s0)
D:\CreateIC\01_CPIPC\riscv\RISCV_ENC_20220421\Firmware_true\app_prj\app_demo\Debug/../src/Bsp/Driver/hme_gpio.c:547
	if (NULL != ptrBackCall)
   10fbc:	fdc42783          	lw	a5,-36(s0)
   10fc0:	02078a63          	beqz	a5,10ff4 <PlicGpioHandle+0x54>
D:\CreateIC\01_CPIPC\riscv\RISCV_ENC_20220421\Firmware_true\app_prj\app_demo\Debug/../src/Bsp/Driver/hme_gpio.c:549
	{
		ptrGpioObj = (PST_GPIO_ATTR)ptrBackCall;
   10fc4:	fdc42783          	lw	a5,-36(s0)
   10fc8:	fef42423          	sw	a5,-24(s0)
D:\CreateIC\01_CPIPC\riscv\RISCV_ENC_20220421\Firmware_true\app_prj\app_demo\Debug/../src/Bsp/Driver/hme_gpio.c:551
		//读取中断状态
		ulIntrState = GpioIntrStateGet(ptrGpioObj);
   10fcc:	fe842503          	lw	a0,-24(s0)
   10fd0:	ef9ff0ef          	jal	ra,10ec8 <GpioIntrStateGet>
   10fd4:	fea42623          	sw	a0,-20(s0)
D:\CreateIC\01_CPIPC\riscv\RISCV_ENC_20220421\Firmware_true\app_prj\app_demo\Debug/../src/Bsp/Driver/hme_gpio.c:553
		//执行中断检索和调度
		GpioIntrDispatch(ptrGpioObj, ulIntrState);
   10fd8:	fec42583          	lw	a1,-20(s0)
   10fdc:	fe842503          	lw	a0,-24(s0)
   10fe0:	034000ef          	jal	ra,11014 <GpioIntrDispatch>
D:\CreateIC\01_CPIPC\riscv\RISCV_ENC_20220421\Firmware_true\app_prj\app_demo\Debug/../src/Bsp/Driver/hme_gpio.c:555
		//清楚GPIO的中断 写中断状态对应的bit位
		GpioIntrStateClear(ptrGpioObj, ulIntrState);
   10fe4:	fec42583          	lw	a1,-20(s0)
   10fe8:	fe842503          	lw	a0,-24(s0)
   10fec:	f45ff0ef          	jal	ra,10f30 <GpioIntrStateClear>
D:\CreateIC\01_CPIPC\riscv\RISCV_ENC_20220421\Firmware_true\app_prj\app_demo\Debug/../src/Bsp/Driver/hme_gpio.c:561
	}
	else
	{
		printf("PLIC Gpio Interrupt Err...!\n");
	}
}
   10ff0:	0100006f          	j	11000 <PlicGpioHandle+0x60>
D:\CreateIC\01_CPIPC\riscv\RISCV_ENC_20220421\Firmware_true\app_prj\app_demo\Debug/../src/Bsp/Driver/hme_gpio.c:559
		printf("PLIC Gpio Interrupt Err...!\n");
   10ff4:	000157b7          	lui	a5,0x15
   10ff8:	08c78513          	addi	a0,a5,140 # 1508c <__init_array_end+0x20>
   10ffc:	69d020ef          	jal	ra,13e98 <puts>
D:\CreateIC\01_CPIPC\riscv\RISCV_ENC_20220421\Firmware_true\app_prj\app_demo\Debug/../src/Bsp/Driver/hme_gpio.c:561
}
   11000:	00000013          	nop
   11004:	02c12083          	lw	ra,44(sp)
   11008:	02812403          	lw	s0,40(sp)
   1100c:	03010113          	addi	sp,sp,48
   11010:	00008067          	ret

00011014 <GpioIntrDispatch>:
GpioIntrDispatch():
D:\CreateIC\01_CPIPC\riscv\RISCV_ENC_20220421\Firmware_true\app_prj\app_demo\Debug/../src/Bsp/Driver/hme_gpio.c:569
 * @brief  GPIO中断分配
 * @param  pstGpioObj: GPIO设备对象指针， ulIntrParam：分配参数
 * @retval 无
 *****************************************************************/
void GpioIntrDispatch(PST_GPIO_ATTR pstGpioObj, uint32_t ulIntrParam)
{
   11014:	fd010113          	addi	sp,sp,-48
   11018:	02112623          	sw	ra,44(sp)
   1101c:	02812423          	sw	s0,40(sp)
   11020:	03010413          	addi	s0,sp,48
   11024:	fca42e23          	sw	a0,-36(s0)
   11028:	fcb42c23          	sw	a1,-40(s0)
D:\CreateIC\01_CPIPC\riscv\RISCV_ENC_20220421\Firmware_true\app_prj\app_demo\Debug/../src/Bsp/Driver/hme_gpio.c:570
	uint32_t ulCount = 0;
   1102c:	fe042623          	sw	zero,-20(s0)
D:\CreateIC\01_CPIPC\riscv\RISCV_ENC_20220421\Firmware_true\app_prj\app_demo\Debug/../src/Bsp/Driver/hme_gpio.c:571
	for (ulCount = 0; ulCount < 32; ulCount++)
   11030:	fe042623          	sw	zero,-20(s0)
   11034:	02c0006f          	j	11060 <GpioIntrDispatch+0x4c>
D:\CreateIC\01_CPIPC\riscv\RISCV_ENC_20220421\Firmware_true\app_prj\app_demo\Debug/../src/Bsp/Driver/hme_gpio.c:573
	{
		if (ulIntrParam & (1 << ulCount))
   11038:	fec42783          	lw	a5,-20(s0)
   1103c:	00100713          	li	a4,1
   11040:	00f717b3          	sll	a5,a4,a5
   11044:	00078713          	mv	a4,a5
   11048:	fd842783          	lw	a5,-40(s0)
   1104c:	00f777b3          	and	a5,a4,a5
   11050:	02079063          	bnez	a5,11070 <GpioIntrDispatch+0x5c>
D:\CreateIC\01_CPIPC\riscv\RISCV_ENC_20220421\Firmware_true\app_prj\app_demo\Debug/../src/Bsp/Driver/hme_gpio.c:571 (discriminator 2)
	for (ulCount = 0; ulCount < 32; ulCount++)
   11054:	fec42783          	lw	a5,-20(s0)
   11058:	00178793          	addi	a5,a5,1
   1105c:	fef42623          	sw	a5,-20(s0)
D:\CreateIC\01_CPIPC\riscv\RISCV_ENC_20220421\Firmware_true\app_prj\app_demo\Debug/../src/Bsp/Driver/hme_gpio.c:571 (discriminator 1)
   11060:	fec42703          	lw	a4,-20(s0)
   11064:	01f00793          	li	a5,31
   11068:	fce7f8e3          	bgeu	a5,a4,11038 <GpioIntrDispatch+0x24>
   1106c:	0080006f          	j	11074 <GpioIntrDispatch+0x60>
D:\CreateIC\01_CPIPC\riscv\RISCV_ENC_20220421\Firmware_true\app_prj\app_demo\Debug/../src/Bsp/Driver/hme_gpio.c:575
		{
			break;
   11070:	00000013          	nop
   11074:	fec42783          	lw	a5,-20(s0)
   11078:	fff78713          	addi	a4,a5,-1
D:\CreateIC\01_CPIPC\riscv\RISCV_ENC_20220421\Firmware_true\app_prj\app_demo\Debug/../src/Bsp/Driver/hme_gpio.c:579
		}
	}

	switch (ulCount)
   1107c:	01f00793          	li	a5,31
   11080:	00e7e863          	bltu	a5,a4,11090 <GpioIntrDispatch+0x7c>
D:\CreateIC\01_CPIPC\riscv\RISCV_ENC_20220421\Firmware_true\app_prj\app_demo\Debug/../src/Bsp/Driver/hme_gpio.c:614
	    case 29:
	    case 30:
	    case 31:
	    case 32:
	    {
	    	GpioIntrExecute(pstGpioObj);
   11084:	fdc42503          	lw	a0,-36(s0)
   11088:	020000ef          	jal	ra,110a8 <GpioIntrExecute>
D:\CreateIC\01_CPIPC\riscv\RISCV_ENC_20220421\Firmware_true\app_prj\app_demo\Debug/../src/Bsp/Driver/hme_gpio.c:615
	    	break;
   1108c:	0080006f          	j	11094 <GpioIntrDispatch+0x80>
D:\CreateIC\01_CPIPC\riscv\RISCV_ENC_20220421\Firmware_true\app_prj\app_demo\Debug/../src/Bsp/Driver/hme_gpio.c:618
	    }
	    default:
	    	break;
   11090:	00000013          	nop
D:\CreateIC\01_CPIPC\riscv\RISCV_ENC_20220421\Firmware_true\app_prj\app_demo\Debug/../src/Bsp/Driver/hme_gpio.c:621
	}

}
   11094:	00000013          	nop
   11098:	02c12083          	lw	ra,44(sp)
   1109c:	02812403          	lw	s0,40(sp)
   110a0:	03010113          	addi	sp,sp,48
   110a4:	00008067          	ret

000110a8 <GpioIntrExecute>:
GpioIntrExecute():
D:\CreateIC\01_CPIPC\riscv\RISCV_ENC_20220421\Firmware_true\app_prj\app_demo\Debug/../src/Bsp/Driver/hme_gpio.c:630
 * @param  pstGpioObj：GPIO设备对象指针
 * @retval 无
 * 注意：该接口预留，只作为测试处理
 *****************************************************************/
void GpioIntrExecute(PST_GPIO_ATTR pstGpioObj)
{
   110a8:	fe010113          	addi	sp,sp,-32
   110ac:	00112e23          	sw	ra,28(sp)
   110b0:	00812c23          	sw	s0,24(sp)
   110b4:	02010413          	addi	s0,sp,32
   110b8:	fea42623          	sw	a0,-20(s0)
D:\CreateIC\01_CPIPC\riscv\RISCV_ENC_20220421\Firmware_true\app_prj\app_demo\Debug/../src/Bsp/Driver/hme_gpio.c:631
	printf ("PLIC Gpio Interrupt Execute....\n");
   110bc:	000157b7          	lui	a5,0x15
   110c0:	0a878513          	addi	a0,a5,168 # 150a8 <__init_array_end+0x3c>
   110c4:	5d5020ef          	jal	ra,13e98 <puts>
D:\CreateIC\01_CPIPC\riscv\RISCV_ENC_20220421\Firmware_true\app_prj\app_demo\Debug/../src/Bsp/Driver/hme_gpio.c:632
}
   110c8:	00000013          	nop
   110cc:	01c12083          	lw	ra,28(sp)
   110d0:	01812403          	lw	s0,24(sp)
   110d4:	02010113          	addi	sp,sp,32
   110d8:	00008067          	ret

000110dc <PlicClaimGet>:
PlicClaimGet():
D:\CreateIC\01_CPIPC\riscv\RISCV_ENC_20220421\Firmware_true\app_prj\app_demo\Debug/../src/Bsp/Driver/hme_plic.c:41
 * @brief  PLIC中断通知获取
 * @param  无
 * @retval uint16_t：返回中断ID
 *****************************************************************/
uint16_t PlicClaimGet(void)
{
   110dc:	fe010113          	addi	sp,sp,-32
   110e0:	00812e23          	sw	s0,28(sp)
   110e4:	02010413          	addi	s0,sp,32
D:\CreateIC\01_CPIPC\riscv\RISCV_ENC_20220421\Firmware_true\app_prj\app_demo\Debug/../src/Bsp/Driver/hme_plic.c:42
	uint16_t usClaimVal = EN_DEV_ID_0;
   110e8:	fe041723          	sh	zero,-18(s0)
D:\CreateIC\01_CPIPC\riscv\RISCV_ENC_20220421\Firmware_true\app_prj\app_demo\Debug/../src/Bsp/Driver/hme_plic.c:43
	usClaimVal = ReadReg32(PLIC_BASE_ADDR + DEF_PLIC_INT_CLAIM_OFFSET);
   110ec:	f8e007b7          	lui	a5,0xf8e00
   110f0:	00478793          	addi	a5,a5,4 # f8e00004 <__freertos_irq_stack_top+0xf8dc19f4>
   110f4:	0007a783          	lw	a5,0(a5)
   110f8:	fef41723          	sh	a5,-18(s0)
D:\CreateIC\01_CPIPC\riscv\RISCV_ENC_20220421\Firmware_true\app_prj\app_demo\Debug/../src/Bsp/Driver/hme_plic.c:44
    return usClaimVal;
   110fc:	fee45783          	lhu	a5,-18(s0)
D:\CreateIC\01_CPIPC\riscv\RISCV_ENC_20220421\Firmware_true\app_prj\app_demo\Debug/../src/Bsp/Driver/hme_plic.c:45
}
   11100:	00078513          	mv	a0,a5
   11104:	01c12403          	lw	s0,28(sp)
   11108:	02010113          	addi	sp,sp,32
   1110c:	00008067          	ret

00011110 <PlicFinishNotice>:
PlicFinishNotice():
D:\CreateIC\01_CPIPC\riscv\RISCV_ENC_20220421\Firmware_true\app_prj\app_demo\Debug/../src/Bsp/Driver/hme_plic.c:53
 * @brief  PLIC中断完成通知
 * @param  usIntrId：中断ID
 * @retval 无
 *****************************************************************/
void PlicFinishNotice(uint16_t usIntrId)
{
   11110:	fe010113          	addi	sp,sp,-32
   11114:	00812e23          	sw	s0,28(sp)
   11118:	02010413          	addi	s0,sp,32
   1111c:	00050793          	mv	a5,a0
   11120:	fef41723          	sh	a5,-18(s0)
D:\CreateIC\01_CPIPC\riscv\RISCV_ENC_20220421\Firmware_true\app_prj\app_demo\Debug/../src/Bsp/Driver/hme_plic.c:54
	WriteReg32(PLIC_BASE_ADDR + DEF_PLIC_INT_FINISH_OFFSET, usIntrId);
   11124:	f8e007b7          	lui	a5,0xf8e00
   11128:	00478793          	addi	a5,a5,4 # f8e00004 <__freertos_irq_stack_top+0xf8dc19f4>
   1112c:	fee45703          	lhu	a4,-18(s0)
   11130:	00e7a023          	sw	a4,0(a5)
D:\CreateIC\01_CPIPC\riscv\RISCV_ENC_20220421\Firmware_true\app_prj\app_demo\Debug/../src/Bsp/Driver/hme_plic.c:55
}
   11134:	00000013          	nop
   11138:	01c12403          	lw	s0,28(sp)
   1113c:	02010113          	addi	sp,sp,32
   11140:	00008067          	ret

00011144 <DevIntrIdTableGet>:
DevIntrIdTableGet():
D:\CreateIC\01_CPIPC\riscv\RISCV_ENC_20220421\Firmware_true\app_prj\app_demo\Debug/../src/Bsp/Driver/hme_plic.c:84
 * @brief  根据设备ID查找中断ID
 * @param  usDevId：设备ID
 * @retval uint16_t：返回中断ID
 *****************************************************************/
uint16_t DevIntrIdTableGet(uint16_t usDevId)
{
   11144:	fe010113          	addi	sp,sp,-32
   11148:	00112e23          	sw	ra,28(sp)
   1114c:	00812c23          	sw	s0,24(sp)
   11150:	02010413          	addi	s0,sp,32
   11154:	00050793          	mv	a5,a0
   11158:	fef41723          	sh	a5,-18(s0)
D:\CreateIC\01_CPIPC\riscv\RISCV_ENC_20220421\Firmware_true\app_prj\app_demo\Debug/../src/Bsp/Driver/hme_plic.c:85
	assert_param(IS_DEV_ID(usDevId));
   1115c:	fee45783          	lhu	a5,-18(s0)
   11160:	0a078263          	beqz	a5,11204 <DevIntrIdTableGet+0xc0>
D:\CreateIC\01_CPIPC\riscv\RISCV_ENC_20220421\Firmware_true\app_prj\app_demo\Debug/../src/Bsp/Driver/hme_plic.c:85 (discriminator 1)
   11164:	fee45703          	lhu	a4,-18(s0)
   11168:	00100793          	li	a5,1
   1116c:	08f70c63          	beq	a4,a5,11204 <DevIntrIdTableGet+0xc0>
D:\CreateIC\01_CPIPC\riscv\RISCV_ENC_20220421\Firmware_true\app_prj\app_demo\Debug/../src/Bsp/Driver/hme_plic.c:85 (discriminator 2)
   11170:	fee45703          	lhu	a4,-18(s0)
   11174:	00200793          	li	a5,2
   11178:	08f70663          	beq	a4,a5,11204 <DevIntrIdTableGet+0xc0>
D:\CreateIC\01_CPIPC\riscv\RISCV_ENC_20220421\Firmware_true\app_prj\app_demo\Debug/../src/Bsp/Driver/hme_plic.c:85 (discriminator 3)
   1117c:	fee45703          	lhu	a4,-18(s0)
   11180:	00300793          	li	a5,3
   11184:	08f70063          	beq	a4,a5,11204 <DevIntrIdTableGet+0xc0>
D:\CreateIC\01_CPIPC\riscv\RISCV_ENC_20220421\Firmware_true\app_prj\app_demo\Debug/../src/Bsp/Driver/hme_plic.c:85 (discriminator 4)
   11188:	fee45703          	lhu	a4,-18(s0)
   1118c:	00400793          	li	a5,4
   11190:	06f70a63          	beq	a4,a5,11204 <DevIntrIdTableGet+0xc0>
D:\CreateIC\01_CPIPC\riscv\RISCV_ENC_20220421\Firmware_true\app_prj\app_demo\Debug/../src/Bsp/Driver/hme_plic.c:85 (discriminator 5)
   11194:	fee45703          	lhu	a4,-18(s0)
   11198:	00500793          	li	a5,5
   1119c:	06f70463          	beq	a4,a5,11204 <DevIntrIdTableGet+0xc0>
D:\CreateIC\01_CPIPC\riscv\RISCV_ENC_20220421\Firmware_true\app_prj\app_demo\Debug/../src/Bsp/Driver/hme_plic.c:85 (discriminator 6)
   111a0:	fee45703          	lhu	a4,-18(s0)
   111a4:	00600793          	li	a5,6
   111a8:	04f70e63          	beq	a4,a5,11204 <DevIntrIdTableGet+0xc0>
D:\CreateIC\01_CPIPC\riscv\RISCV_ENC_20220421\Firmware_true\app_prj\app_demo\Debug/../src/Bsp/Driver/hme_plic.c:85 (discriminator 7)
   111ac:	fee45703          	lhu	a4,-18(s0)
   111b0:	00700793          	li	a5,7
   111b4:	04f70863          	beq	a4,a5,11204 <DevIntrIdTableGet+0xc0>
D:\CreateIC\01_CPIPC\riscv\RISCV_ENC_20220421\Firmware_true\app_prj\app_demo\Debug/../src/Bsp/Driver/hme_plic.c:85 (discriminator 8)
   111b8:	fee45703          	lhu	a4,-18(s0)
   111bc:	00800793          	li	a5,8
   111c0:	04f70263          	beq	a4,a5,11204 <DevIntrIdTableGet+0xc0>
D:\CreateIC\01_CPIPC\riscv\RISCV_ENC_20220421\Firmware_true\app_prj\app_demo\Debug/../src/Bsp/Driver/hme_plic.c:85 (discriminator 9)
   111c4:	fee45703          	lhu	a4,-18(s0)
   111c8:	00900793          	li	a5,9
   111cc:	02f70c63          	beq	a4,a5,11204 <DevIntrIdTableGet+0xc0>
D:\CreateIC\01_CPIPC\riscv\RISCV_ENC_20220421\Firmware_true\app_prj\app_demo\Debug/../src/Bsp/Driver/hme_plic.c:85 (discriminator 10)
   111d0:	fee45703          	lhu	a4,-18(s0)
   111d4:	00a00793          	li	a5,10
   111d8:	02f70663          	beq	a4,a5,11204 <DevIntrIdTableGet+0xc0>
D:\CreateIC\01_CPIPC\riscv\RISCV_ENC_20220421\Firmware_true\app_prj\app_demo\Debug/../src/Bsp/Driver/hme_plic.c:85 (discriminator 11)
   111dc:	fee45703          	lhu	a4,-18(s0)
   111e0:	00b00793          	li	a5,11
   111e4:	02f70063          	beq	a4,a5,11204 <DevIntrIdTableGet+0xc0>
D:\CreateIC\01_CPIPC\riscv\RISCV_ENC_20220421\Firmware_true\app_prj\app_demo\Debug/../src/Bsp/Driver/hme_plic.c:85 (discriminator 12)
   111e8:	fee45703          	lhu	a4,-18(s0)
   111ec:	00c00793          	li	a5,12
   111f0:	00f70a63          	beq	a4,a5,11204 <DevIntrIdTableGet+0xc0>
D:\CreateIC\01_CPIPC\riscv\RISCV_ENC_20220421\Firmware_true\app_prj\app_demo\Debug/../src/Bsp/Driver/hme_plic.c:85 (discriminator 13)
   111f4:	05500593          	li	a1,85
   111f8:	000157b7          	lui	a5,0x15
   111fc:	0c878513          	addi	a0,a5,200 # 150c8 <__init_array_end+0x5c>
   11200:	180020ef          	jal	ra,13380 <assert_failed>
D:\CreateIC\01_CPIPC\riscv\RISCV_ENC_20220421\Firmware_true\app_prj\app_demo\Debug/../src/Bsp/Driver/hme_plic.c:87

	return astDevParam[usDevId].usIntrId;
   11204:	fee45783          	lhu	a5,-18(s0)
   11208:	00015737          	lui	a4,0x15
   1120c:	3b470713          	addi	a4,a4,948 # 153b4 <astDevParam>
   11210:	00479793          	slli	a5,a5,0x4
   11214:	00f707b3          	add	a5,a4,a5
   11218:	0027d783          	lhu	a5,2(a5)
D:\CreateIC\01_CPIPC\riscv\RISCV_ENC_20220421\Firmware_true\app_prj\app_demo\Debug/../src/Bsp/Driver/hme_plic.c:88
}
   1121c:	00078513          	mv	a0,a5
   11220:	01c12083          	lw	ra,28(sp)
   11224:	01812403          	lw	s0,24(sp)
   11228:	02010113          	addi	sp,sp,32
   1122c:	00008067          	ret

00011230 <DevPriorityOffsetTableGet>:
DevPriorityOffsetTableGet():
D:\CreateIC\01_CPIPC\riscv\RISCV_ENC_20220421\Firmware_true\app_prj\app_demo\Debug/../src/Bsp/Driver/hme_plic.c:96
 * @brief  根据设备ID查找优先级配置寄存器的偏移地址
 * @param  usDevId：设备ID
 * @retval uint32_t：返回优先级寄存器偏移地址
 *****************************************************************/
uint32_t DevPriorityOffsetTableGet(uint16_t usDevId)
{
   11230:	fe010113          	addi	sp,sp,-32
   11234:	00112e23          	sw	ra,28(sp)
   11238:	00812c23          	sw	s0,24(sp)
   1123c:	02010413          	addi	s0,sp,32
   11240:	00050793          	mv	a5,a0
   11244:	fef41723          	sh	a5,-18(s0)
D:\CreateIC\01_CPIPC\riscv\RISCV_ENC_20220421\Firmware_true\app_prj\app_demo\Debug/../src/Bsp/Driver/hme_plic.c:97
	assert_param(IS_DEV_ID(usDevId));
   11248:	fee45783          	lhu	a5,-18(s0)
   1124c:	0a078263          	beqz	a5,112f0 <DevPriorityOffsetTableGet+0xc0>
D:\CreateIC\01_CPIPC\riscv\RISCV_ENC_20220421\Firmware_true\app_prj\app_demo\Debug/../src/Bsp/Driver/hme_plic.c:97 (discriminator 1)
   11250:	fee45703          	lhu	a4,-18(s0)
   11254:	00100793          	li	a5,1
   11258:	08f70c63          	beq	a4,a5,112f0 <DevPriorityOffsetTableGet+0xc0>
D:\CreateIC\01_CPIPC\riscv\RISCV_ENC_20220421\Firmware_true\app_prj\app_demo\Debug/../src/Bsp/Driver/hme_plic.c:97 (discriminator 2)
   1125c:	fee45703          	lhu	a4,-18(s0)
   11260:	00200793          	li	a5,2
   11264:	08f70663          	beq	a4,a5,112f0 <DevPriorityOffsetTableGet+0xc0>
D:\CreateIC\01_CPIPC\riscv\RISCV_ENC_20220421\Firmware_true\app_prj\app_demo\Debug/../src/Bsp/Driver/hme_plic.c:97 (discriminator 3)
   11268:	fee45703          	lhu	a4,-18(s0)
   1126c:	00300793          	li	a5,3
   11270:	08f70063          	beq	a4,a5,112f0 <DevPriorityOffsetTableGet+0xc0>
D:\CreateIC\01_CPIPC\riscv\RISCV_ENC_20220421\Firmware_true\app_prj\app_demo\Debug/../src/Bsp/Driver/hme_plic.c:97 (discriminator 4)
   11274:	fee45703          	lhu	a4,-18(s0)
   11278:	00400793          	li	a5,4
   1127c:	06f70a63          	beq	a4,a5,112f0 <DevPriorityOffsetTableGet+0xc0>
D:\CreateIC\01_CPIPC\riscv\RISCV_ENC_20220421\Firmware_true\app_prj\app_demo\Debug/../src/Bsp/Driver/hme_plic.c:97 (discriminator 5)
   11280:	fee45703          	lhu	a4,-18(s0)
   11284:	00500793          	li	a5,5
   11288:	06f70463          	beq	a4,a5,112f0 <DevPriorityOffsetTableGet+0xc0>
D:\CreateIC\01_CPIPC\riscv\RISCV_ENC_20220421\Firmware_true\app_prj\app_demo\Debug/../src/Bsp/Driver/hme_plic.c:97 (discriminator 6)
   1128c:	fee45703          	lhu	a4,-18(s0)
   11290:	00600793          	li	a5,6
   11294:	04f70e63          	beq	a4,a5,112f0 <DevPriorityOffsetTableGet+0xc0>
D:\CreateIC\01_CPIPC\riscv\RISCV_ENC_20220421\Firmware_true\app_prj\app_demo\Debug/../src/Bsp/Driver/hme_plic.c:97 (discriminator 7)
   11298:	fee45703          	lhu	a4,-18(s0)
   1129c:	00700793          	li	a5,7
   112a0:	04f70863          	beq	a4,a5,112f0 <DevPriorityOffsetTableGet+0xc0>
D:\CreateIC\01_CPIPC\riscv\RISCV_ENC_20220421\Firmware_true\app_prj\app_demo\Debug/../src/Bsp/Driver/hme_plic.c:97 (discriminator 8)
   112a4:	fee45703          	lhu	a4,-18(s0)
   112a8:	00800793          	li	a5,8
   112ac:	04f70263          	beq	a4,a5,112f0 <DevPriorityOffsetTableGet+0xc0>
D:\CreateIC\01_CPIPC\riscv\RISCV_ENC_20220421\Firmware_true\app_prj\app_demo\Debug/../src/Bsp/Driver/hme_plic.c:97 (discriminator 9)
   112b0:	fee45703          	lhu	a4,-18(s0)
   112b4:	00900793          	li	a5,9
   112b8:	02f70c63          	beq	a4,a5,112f0 <DevPriorityOffsetTableGet+0xc0>
D:\CreateIC\01_CPIPC\riscv\RISCV_ENC_20220421\Firmware_true\app_prj\app_demo\Debug/../src/Bsp/Driver/hme_plic.c:97 (discriminator 10)
   112bc:	fee45703          	lhu	a4,-18(s0)
   112c0:	00a00793          	li	a5,10
   112c4:	02f70663          	beq	a4,a5,112f0 <DevPriorityOffsetTableGet+0xc0>
D:\CreateIC\01_CPIPC\riscv\RISCV_ENC_20220421\Firmware_true\app_prj\app_demo\Debug/../src/Bsp/Driver/hme_plic.c:97 (discriminator 11)
   112c8:	fee45703          	lhu	a4,-18(s0)
   112cc:	00b00793          	li	a5,11
   112d0:	02f70063          	beq	a4,a5,112f0 <DevPriorityOffsetTableGet+0xc0>
D:\CreateIC\01_CPIPC\riscv\RISCV_ENC_20220421\Firmware_true\app_prj\app_demo\Debug/../src/Bsp/Driver/hme_plic.c:97 (discriminator 12)
   112d4:	fee45703          	lhu	a4,-18(s0)
   112d8:	00c00793          	li	a5,12
   112dc:	00f70a63          	beq	a4,a5,112f0 <DevPriorityOffsetTableGet+0xc0>
D:\CreateIC\01_CPIPC\riscv\RISCV_ENC_20220421\Firmware_true\app_prj\app_demo\Debug/../src/Bsp/Driver/hme_plic.c:97 (discriminator 13)
   112e0:	06100593          	li	a1,97
   112e4:	000157b7          	lui	a5,0x15
   112e8:	0c878513          	addi	a0,a5,200 # 150c8 <__init_array_end+0x5c>
   112ec:	094020ef          	jal	ra,13380 <assert_failed>
D:\CreateIC\01_CPIPC\riscv\RISCV_ENC_20220421\Firmware_true\app_prj\app_demo\Debug/../src/Bsp/Driver/hme_plic.c:99

	return astDevParam[usDevId].ulPriorityOffset;
   112f0:	fee45783          	lhu	a5,-18(s0)
   112f4:	00015737          	lui	a4,0x15
   112f8:	3b470713          	addi	a4,a4,948 # 153b4 <astDevParam>
   112fc:	00479793          	slli	a5,a5,0x4
   11300:	00f707b3          	add	a5,a4,a5
   11304:	0047a783          	lw	a5,4(a5)
D:\CreateIC\01_CPIPC\riscv\RISCV_ENC_20220421\Firmware_true\app_prj\app_demo\Debug/../src/Bsp/Driver/hme_plic.c:100
}
   11308:	00078513          	mv	a0,a5
   1130c:	01c12083          	lw	ra,28(sp)
   11310:	01812403          	lw	s0,24(sp)
   11314:	02010113          	addi	sp,sp,32
   11318:	00008067          	ret

0001131c <DevIntrEnTableGet>:
DevIntrEnTableGet():
D:\CreateIC\01_CPIPC\riscv\RISCV_ENC_20220421\Firmware_true\app_prj\app_demo\Debug/../src/Bsp/Driver/hme_plic.c:120
 * @brief  根据设备ID查找中断使能配置值
 * @param  usDevId：设备ID
 * @retval uint32_t：返回使能配置值
 *****************************************************************/
uint32_t DevIntrEnTableGet(uint16_t usDevId)
{
   1131c:	fe010113          	addi	sp,sp,-32
   11320:	00112e23          	sw	ra,28(sp)
   11324:	00812c23          	sw	s0,24(sp)
   11328:	02010413          	addi	s0,sp,32
   1132c:	00050793          	mv	a5,a0
   11330:	fef41723          	sh	a5,-18(s0)
D:\CreateIC\01_CPIPC\riscv\RISCV_ENC_20220421\Firmware_true\app_prj\app_demo\Debug/../src/Bsp/Driver/hme_plic.c:121
	assert_param(IS_DEV_ID(usDevId));
   11334:	fee45783          	lhu	a5,-18(s0)
   11338:	0a078263          	beqz	a5,113dc <DevIntrEnTableGet+0xc0>
D:\CreateIC\01_CPIPC\riscv\RISCV_ENC_20220421\Firmware_true\app_prj\app_demo\Debug/../src/Bsp/Driver/hme_plic.c:121 (discriminator 1)
   1133c:	fee45703          	lhu	a4,-18(s0)
   11340:	00100793          	li	a5,1
   11344:	08f70c63          	beq	a4,a5,113dc <DevIntrEnTableGet+0xc0>
D:\CreateIC\01_CPIPC\riscv\RISCV_ENC_20220421\Firmware_true\app_prj\app_demo\Debug/../src/Bsp/Driver/hme_plic.c:121 (discriminator 2)
   11348:	fee45703          	lhu	a4,-18(s0)
   1134c:	00200793          	li	a5,2
   11350:	08f70663          	beq	a4,a5,113dc <DevIntrEnTableGet+0xc0>
D:\CreateIC\01_CPIPC\riscv\RISCV_ENC_20220421\Firmware_true\app_prj\app_demo\Debug/../src/Bsp/Driver/hme_plic.c:121 (discriminator 3)
   11354:	fee45703          	lhu	a4,-18(s0)
   11358:	00300793          	li	a5,3
   1135c:	08f70063          	beq	a4,a5,113dc <DevIntrEnTableGet+0xc0>
D:\CreateIC\01_CPIPC\riscv\RISCV_ENC_20220421\Firmware_true\app_prj\app_demo\Debug/../src/Bsp/Driver/hme_plic.c:121 (discriminator 4)
   11360:	fee45703          	lhu	a4,-18(s0)
   11364:	00400793          	li	a5,4
   11368:	06f70a63          	beq	a4,a5,113dc <DevIntrEnTableGet+0xc0>
D:\CreateIC\01_CPIPC\riscv\RISCV_ENC_20220421\Firmware_true\app_prj\app_demo\Debug/../src/Bsp/Driver/hme_plic.c:121 (discriminator 5)
   1136c:	fee45703          	lhu	a4,-18(s0)
   11370:	00500793          	li	a5,5
   11374:	06f70463          	beq	a4,a5,113dc <DevIntrEnTableGet+0xc0>
D:\CreateIC\01_CPIPC\riscv\RISCV_ENC_20220421\Firmware_true\app_prj\app_demo\Debug/../src/Bsp/Driver/hme_plic.c:121 (discriminator 6)
   11378:	fee45703          	lhu	a4,-18(s0)
   1137c:	00600793          	li	a5,6
   11380:	04f70e63          	beq	a4,a5,113dc <DevIntrEnTableGet+0xc0>
D:\CreateIC\01_CPIPC\riscv\RISCV_ENC_20220421\Firmware_true\app_prj\app_demo\Debug/../src/Bsp/Driver/hme_plic.c:121 (discriminator 7)
   11384:	fee45703          	lhu	a4,-18(s0)
   11388:	00700793          	li	a5,7
   1138c:	04f70863          	beq	a4,a5,113dc <DevIntrEnTableGet+0xc0>
D:\CreateIC\01_CPIPC\riscv\RISCV_ENC_20220421\Firmware_true\app_prj\app_demo\Debug/../src/Bsp/Driver/hme_plic.c:121 (discriminator 8)
   11390:	fee45703          	lhu	a4,-18(s0)
   11394:	00800793          	li	a5,8
   11398:	04f70263          	beq	a4,a5,113dc <DevIntrEnTableGet+0xc0>
D:\CreateIC\01_CPIPC\riscv\RISCV_ENC_20220421\Firmware_true\app_prj\app_demo\Debug/../src/Bsp/Driver/hme_plic.c:121 (discriminator 9)
   1139c:	fee45703          	lhu	a4,-18(s0)
   113a0:	00900793          	li	a5,9
   113a4:	02f70c63          	beq	a4,a5,113dc <DevIntrEnTableGet+0xc0>
D:\CreateIC\01_CPIPC\riscv\RISCV_ENC_20220421\Firmware_true\app_prj\app_demo\Debug/../src/Bsp/Driver/hme_plic.c:121 (discriminator 10)
   113a8:	fee45703          	lhu	a4,-18(s0)
   113ac:	00a00793          	li	a5,10
   113b0:	02f70663          	beq	a4,a5,113dc <DevIntrEnTableGet+0xc0>
D:\CreateIC\01_CPIPC\riscv\RISCV_ENC_20220421\Firmware_true\app_prj\app_demo\Debug/../src/Bsp/Driver/hme_plic.c:121 (discriminator 11)
   113b4:	fee45703          	lhu	a4,-18(s0)
   113b8:	00b00793          	li	a5,11
   113bc:	02f70063          	beq	a4,a5,113dc <DevIntrEnTableGet+0xc0>
D:\CreateIC\01_CPIPC\riscv\RISCV_ENC_20220421\Firmware_true\app_prj\app_demo\Debug/../src/Bsp/Driver/hme_plic.c:121 (discriminator 12)
   113c0:	fee45703          	lhu	a4,-18(s0)
   113c4:	00c00793          	li	a5,12
   113c8:	00f70a63          	beq	a4,a5,113dc <DevIntrEnTableGet+0xc0>
D:\CreateIC\01_CPIPC\riscv\RISCV_ENC_20220421\Firmware_true\app_prj\app_demo\Debug/../src/Bsp/Driver/hme_plic.c:121 (discriminator 13)
   113cc:	07900593          	li	a1,121
   113d0:	000157b7          	lui	a5,0x15
   113d4:	0c878513          	addi	a0,a5,200 # 150c8 <__init_array_end+0x5c>
   113d8:	7a9010ef          	jal	ra,13380 <assert_failed>
D:\CreateIC\01_CPIPC\riscv\RISCV_ENC_20220421\Firmware_true\app_prj\app_demo\Debug/../src/Bsp/Driver/hme_plic.c:123

	return astDevParam[usDevId].ulIntrEnable;
   113dc:	fee45783          	lhu	a5,-18(s0)
   113e0:	00015737          	lui	a4,0x15
   113e4:	3b470713          	addi	a4,a4,948 # 153b4 <astDevParam>
   113e8:	00479793          	slli	a5,a5,0x4
   113ec:	00f707b3          	add	a5,a4,a5
   113f0:	00c7a783          	lw	a5,12(a5)
D:\CreateIC\01_CPIPC\riscv\RISCV_ENC_20220421\Firmware_true\app_prj\app_demo\Debug/../src/Bsp/Driver/hme_plic.c:124
}
   113f4:	00078513          	mv	a0,a5
   113f8:	01c12083          	lw	ra,28(sp)
   113fc:	01812403          	lw	s0,24(sp)
   11400:	02010113          	addi	sp,sp,32
   11404:	00008067          	ret

00011408 <IntrPrioritySet>:
IntrPrioritySet():
D:\CreateIC\01_CPIPC\riscv\RISCV_ENC_20220421\Firmware_true\app_prj\app_demo\Debug/../src/Bsp/Driver/hme_plic.c:132
 * @brief  根据设备ID配置中断优先级
 * @param  usDevId：设备ID， ucPriority优先级参数
 * @retval 无
 *****************************************************************/
void IntrPrioritySet(uint16_t usDevId, uint8_t ucPriority)
{
   11408:	fd010113          	addi	sp,sp,-48
   1140c:	02112623          	sw	ra,44(sp)
   11410:	02812423          	sw	s0,40(sp)
   11414:	03010413          	addi	s0,sp,48
   11418:	00050793          	mv	a5,a0
   1141c:	00058713          	mv	a4,a1
   11420:	fcf41f23          	sh	a5,-34(s0)
   11424:	00070793          	mv	a5,a4
   11428:	fcf40ea3          	sb	a5,-35(s0)
D:\CreateIC\01_CPIPC\riscv\RISCV_ENC_20220421\Firmware_true\app_prj\app_demo\Debug/../src/Bsp/Driver/hme_plic.c:133
	assert_param(IS_DEV_ID(usDevId));
   1142c:	fde45783          	lhu	a5,-34(s0)
   11430:	0a078263          	beqz	a5,114d4 <IntrPrioritySet+0xcc>
D:\CreateIC\01_CPIPC\riscv\RISCV_ENC_20220421\Firmware_true\app_prj\app_demo\Debug/../src/Bsp/Driver/hme_plic.c:133 (discriminator 1)
   11434:	fde45703          	lhu	a4,-34(s0)
   11438:	00100793          	li	a5,1
   1143c:	08f70c63          	beq	a4,a5,114d4 <IntrPrioritySet+0xcc>
D:\CreateIC\01_CPIPC\riscv\RISCV_ENC_20220421\Firmware_true\app_prj\app_demo\Debug/../src/Bsp/Driver/hme_plic.c:133 (discriminator 2)
   11440:	fde45703          	lhu	a4,-34(s0)
   11444:	00200793          	li	a5,2
   11448:	08f70663          	beq	a4,a5,114d4 <IntrPrioritySet+0xcc>
D:\CreateIC\01_CPIPC\riscv\RISCV_ENC_20220421\Firmware_true\app_prj\app_demo\Debug/../src/Bsp/Driver/hme_plic.c:133 (discriminator 3)
   1144c:	fde45703          	lhu	a4,-34(s0)
   11450:	00300793          	li	a5,3
   11454:	08f70063          	beq	a4,a5,114d4 <IntrPrioritySet+0xcc>
D:\CreateIC\01_CPIPC\riscv\RISCV_ENC_20220421\Firmware_true\app_prj\app_demo\Debug/../src/Bsp/Driver/hme_plic.c:133 (discriminator 4)
   11458:	fde45703          	lhu	a4,-34(s0)
   1145c:	00400793          	li	a5,4
   11460:	06f70a63          	beq	a4,a5,114d4 <IntrPrioritySet+0xcc>
D:\CreateIC\01_CPIPC\riscv\RISCV_ENC_20220421\Firmware_true\app_prj\app_demo\Debug/../src/Bsp/Driver/hme_plic.c:133 (discriminator 5)
   11464:	fde45703          	lhu	a4,-34(s0)
   11468:	00500793          	li	a5,5
   1146c:	06f70463          	beq	a4,a5,114d4 <IntrPrioritySet+0xcc>
D:\CreateIC\01_CPIPC\riscv\RISCV_ENC_20220421\Firmware_true\app_prj\app_demo\Debug/../src/Bsp/Driver/hme_plic.c:133 (discriminator 6)
   11470:	fde45703          	lhu	a4,-34(s0)
   11474:	00600793          	li	a5,6
   11478:	04f70e63          	beq	a4,a5,114d4 <IntrPrioritySet+0xcc>
D:\CreateIC\01_CPIPC\riscv\RISCV_ENC_20220421\Firmware_true\app_prj\app_demo\Debug/../src/Bsp/Driver/hme_plic.c:133 (discriminator 7)
   1147c:	fde45703          	lhu	a4,-34(s0)
   11480:	00700793          	li	a5,7
   11484:	04f70863          	beq	a4,a5,114d4 <IntrPrioritySet+0xcc>
D:\CreateIC\01_CPIPC\riscv\RISCV_ENC_20220421\Firmware_true\app_prj\app_demo\Debug/../src/Bsp/Driver/hme_plic.c:133 (discriminator 8)
   11488:	fde45703          	lhu	a4,-34(s0)
   1148c:	00800793          	li	a5,8
   11490:	04f70263          	beq	a4,a5,114d4 <IntrPrioritySet+0xcc>
D:\CreateIC\01_CPIPC\riscv\RISCV_ENC_20220421\Firmware_true\app_prj\app_demo\Debug/../src/Bsp/Driver/hme_plic.c:133 (discriminator 9)
   11494:	fde45703          	lhu	a4,-34(s0)
   11498:	00900793          	li	a5,9
   1149c:	02f70c63          	beq	a4,a5,114d4 <IntrPrioritySet+0xcc>
D:\CreateIC\01_CPIPC\riscv\RISCV_ENC_20220421\Firmware_true\app_prj\app_demo\Debug/../src/Bsp/Driver/hme_plic.c:133 (discriminator 10)
   114a0:	fde45703          	lhu	a4,-34(s0)
   114a4:	00a00793          	li	a5,10
   114a8:	02f70663          	beq	a4,a5,114d4 <IntrPrioritySet+0xcc>
D:\CreateIC\01_CPIPC\riscv\RISCV_ENC_20220421\Firmware_true\app_prj\app_demo\Debug/../src/Bsp/Driver/hme_plic.c:133 (discriminator 11)
   114ac:	fde45703          	lhu	a4,-34(s0)
   114b0:	00b00793          	li	a5,11
   114b4:	02f70063          	beq	a4,a5,114d4 <IntrPrioritySet+0xcc>
D:\CreateIC\01_CPIPC\riscv\RISCV_ENC_20220421\Firmware_true\app_prj\app_demo\Debug/../src/Bsp/Driver/hme_plic.c:133 (discriminator 12)
   114b8:	fde45703          	lhu	a4,-34(s0)
   114bc:	00c00793          	li	a5,12
   114c0:	00f70a63          	beq	a4,a5,114d4 <IntrPrioritySet+0xcc>
D:\CreateIC\01_CPIPC\riscv\RISCV_ENC_20220421\Firmware_true\app_prj\app_demo\Debug/../src/Bsp/Driver/hme_plic.c:133 (discriminator 13)
   114c4:	08500593          	li	a1,133
   114c8:	000157b7          	lui	a5,0x15
   114cc:	0c878513          	addi	a0,a5,200 # 150c8 <__init_array_end+0x5c>
   114d0:	6b1010ef          	jal	ra,13380 <assert_failed>
D:\CreateIC\01_CPIPC\riscv\RISCV_ENC_20220421\Firmware_true\app_prj\app_demo\Debug/../src/Bsp/Driver/hme_plic.c:134
	assert_param(IS_PLIC_PRIORITY(ucPriority));
   114d4:	fdd44783          	lbu	a5,-35(s0)
   114d8:	02078c63          	beqz	a5,11510 <IntrPrioritySet+0x108>
D:\CreateIC\01_CPIPC\riscv\RISCV_ENC_20220421\Firmware_true\app_prj\app_demo\Debug/../src/Bsp/Driver/hme_plic.c:134 (discriminator 1)
   114dc:	fdd44703          	lbu	a4,-35(s0)
   114e0:	00100793          	li	a5,1
   114e4:	02f70663          	beq	a4,a5,11510 <IntrPrioritySet+0x108>
D:\CreateIC\01_CPIPC\riscv\RISCV_ENC_20220421\Firmware_true\app_prj\app_demo\Debug/../src/Bsp/Driver/hme_plic.c:134 (discriminator 2)
   114e8:	fdd44703          	lbu	a4,-35(s0)
   114ec:	00200793          	li	a5,2
   114f0:	02f70063          	beq	a4,a5,11510 <IntrPrioritySet+0x108>
D:\CreateIC\01_CPIPC\riscv\RISCV_ENC_20220421\Firmware_true\app_prj\app_demo\Debug/../src/Bsp/Driver/hme_plic.c:134 (discriminator 3)
   114f4:	fdd44703          	lbu	a4,-35(s0)
   114f8:	00300793          	li	a5,3
   114fc:	00f70a63          	beq	a4,a5,11510 <IntrPrioritySet+0x108>
D:\CreateIC\01_CPIPC\riscv\RISCV_ENC_20220421\Firmware_true\app_prj\app_demo\Debug/../src/Bsp/Driver/hme_plic.c:134 (discriminator 4)
   11500:	08600593          	li	a1,134
   11504:	000157b7          	lui	a5,0x15
   11508:	0c878513          	addi	a0,a5,200 # 150c8 <__init_array_end+0x5c>
   1150c:	675010ef          	jal	ra,13380 <assert_failed>
D:\CreateIC\01_CPIPC\riscv\RISCV_ENC_20220421\Firmware_true\app_prj\app_demo\Debug/../src/Bsp/Driver/hme_plic.c:136

	uint32_t ulPriorityOffset = 0;
   11510:	fe042623          	sw	zero,-20(s0)
D:\CreateIC\01_CPIPC\riscv\RISCV_ENC_20220421\Firmware_true\app_prj\app_demo\Debug/../src/Bsp/Driver/hme_plic.c:138

	ulPriorityOffset = DevPriorityOffsetTableGet(usDevId);
   11514:	fde45783          	lhu	a5,-34(s0)
   11518:	00078513          	mv	a0,a5
   1151c:	d15ff0ef          	jal	ra,11230 <DevPriorityOffsetTableGet>
   11520:	fea42623          	sw	a0,-20(s0)
D:\CreateIC\01_CPIPC\riscv\RISCV_ENC_20220421\Firmware_true\app_prj\app_demo\Debug/../src/Bsp/Driver/hme_plic.c:139
    WriteReg32(PLIC_BASE_ADDR + ulPriorityOffset, ucPriority);
   11524:	fec42703          	lw	a4,-20(s0)
   11528:	f8c007b7          	lui	a5,0xf8c00
   1152c:	00f707b3          	add	a5,a4,a5
   11530:	00078713          	mv	a4,a5
   11534:	fdd44783          	lbu	a5,-35(s0)
   11538:	00f72023          	sw	a5,0(a4)
D:\CreateIC\01_CPIPC\riscv\RISCV_ENC_20220421\Firmware_true\app_prj\app_demo\Debug/../src/Bsp/Driver/hme_plic.c:140
}
   1153c:	00000013          	nop
   11540:	02c12083          	lw	ra,44(sp)
   11544:	02812403          	lw	s0,40(sp)
   11548:	03010113          	addi	sp,sp,48
   1154c:	00008067          	ret

00011550 <IntrPriorityGet>:
IntrPriorityGet():
D:\CreateIC\01_CPIPC\riscv\RISCV_ENC_20220421\Firmware_true\app_prj\app_demo\Debug/../src/Bsp/Driver/hme_plic.c:148
 * @brief  根据设备ID获取中断优先级
 * @param  usDevId：设备ID
 * @retval uint32_t：返回中断优先级的值
 *****************************************************************/
uint32_t IntrPriorityGet(uint16_t usDevId)
{
   11550:	fd010113          	addi	sp,sp,-48
   11554:	02112623          	sw	ra,44(sp)
   11558:	02812423          	sw	s0,40(sp)
   1155c:	03010413          	addi	s0,sp,48
   11560:	00050793          	mv	a5,a0
   11564:	fcf41f23          	sh	a5,-34(s0)
D:\CreateIC\01_CPIPC\riscv\RISCV_ENC_20220421\Firmware_true\app_prj\app_demo\Debug/../src/Bsp/Driver/hme_plic.c:149
	assert_param(IS_DEV_ID(usDevId));
   11568:	fde45783          	lhu	a5,-34(s0)
   1156c:	0a078263          	beqz	a5,11610 <IntrPriorityGet+0xc0>
D:\CreateIC\01_CPIPC\riscv\RISCV_ENC_20220421\Firmware_true\app_prj\app_demo\Debug/../src/Bsp/Driver/hme_plic.c:149 (discriminator 1)
   11570:	fde45703          	lhu	a4,-34(s0)
   11574:	00100793          	li	a5,1
   11578:	08f70c63          	beq	a4,a5,11610 <IntrPriorityGet+0xc0>
D:\CreateIC\01_CPIPC\riscv\RISCV_ENC_20220421\Firmware_true\app_prj\app_demo\Debug/../src/Bsp/Driver/hme_plic.c:149 (discriminator 2)
   1157c:	fde45703          	lhu	a4,-34(s0)
   11580:	00200793          	li	a5,2
   11584:	08f70663          	beq	a4,a5,11610 <IntrPriorityGet+0xc0>
D:\CreateIC\01_CPIPC\riscv\RISCV_ENC_20220421\Firmware_true\app_prj\app_demo\Debug/../src/Bsp/Driver/hme_plic.c:149 (discriminator 3)
   11588:	fde45703          	lhu	a4,-34(s0)
   1158c:	00300793          	li	a5,3
   11590:	08f70063          	beq	a4,a5,11610 <IntrPriorityGet+0xc0>
D:\CreateIC\01_CPIPC\riscv\RISCV_ENC_20220421\Firmware_true\app_prj\app_demo\Debug/../src/Bsp/Driver/hme_plic.c:149 (discriminator 4)
   11594:	fde45703          	lhu	a4,-34(s0)
   11598:	00400793          	li	a5,4
   1159c:	06f70a63          	beq	a4,a5,11610 <IntrPriorityGet+0xc0>
D:\CreateIC\01_CPIPC\riscv\RISCV_ENC_20220421\Firmware_true\app_prj\app_demo\Debug/../src/Bsp/Driver/hme_plic.c:149 (discriminator 5)
   115a0:	fde45703          	lhu	a4,-34(s0)
   115a4:	00500793          	li	a5,5
   115a8:	06f70463          	beq	a4,a5,11610 <IntrPriorityGet+0xc0>
D:\CreateIC\01_CPIPC\riscv\RISCV_ENC_20220421\Firmware_true\app_prj\app_demo\Debug/../src/Bsp/Driver/hme_plic.c:149 (discriminator 6)
   115ac:	fde45703          	lhu	a4,-34(s0)
   115b0:	00600793          	li	a5,6
   115b4:	04f70e63          	beq	a4,a5,11610 <IntrPriorityGet+0xc0>
D:\CreateIC\01_CPIPC\riscv\RISCV_ENC_20220421\Firmware_true\app_prj\app_demo\Debug/../src/Bsp/Driver/hme_plic.c:149 (discriminator 7)
   115b8:	fde45703          	lhu	a4,-34(s0)
   115bc:	00700793          	li	a5,7
   115c0:	04f70863          	beq	a4,a5,11610 <IntrPriorityGet+0xc0>
D:\CreateIC\01_CPIPC\riscv\RISCV_ENC_20220421\Firmware_true\app_prj\app_demo\Debug/../src/Bsp/Driver/hme_plic.c:149 (discriminator 8)
   115c4:	fde45703          	lhu	a4,-34(s0)
   115c8:	00800793          	li	a5,8
   115cc:	04f70263          	beq	a4,a5,11610 <IntrPriorityGet+0xc0>
D:\CreateIC\01_CPIPC\riscv\RISCV_ENC_20220421\Firmware_true\app_prj\app_demo\Debug/../src/Bsp/Driver/hme_plic.c:149 (discriminator 9)
   115d0:	fde45703          	lhu	a4,-34(s0)
   115d4:	00900793          	li	a5,9
   115d8:	02f70c63          	beq	a4,a5,11610 <IntrPriorityGet+0xc0>
D:\CreateIC\01_CPIPC\riscv\RISCV_ENC_20220421\Firmware_true\app_prj\app_demo\Debug/../src/Bsp/Driver/hme_plic.c:149 (discriminator 10)
   115dc:	fde45703          	lhu	a4,-34(s0)
   115e0:	00a00793          	li	a5,10
   115e4:	02f70663          	beq	a4,a5,11610 <IntrPriorityGet+0xc0>
D:\CreateIC\01_CPIPC\riscv\RISCV_ENC_20220421\Firmware_true\app_prj\app_demo\Debug/../src/Bsp/Driver/hme_plic.c:149 (discriminator 11)
   115e8:	fde45703          	lhu	a4,-34(s0)
   115ec:	00b00793          	li	a5,11
   115f0:	02f70063          	beq	a4,a5,11610 <IntrPriorityGet+0xc0>
D:\CreateIC\01_CPIPC\riscv\RISCV_ENC_20220421\Firmware_true\app_prj\app_demo\Debug/../src/Bsp/Driver/hme_plic.c:149 (discriminator 12)
   115f4:	fde45703          	lhu	a4,-34(s0)
   115f8:	00c00793          	li	a5,12
   115fc:	00f70a63          	beq	a4,a5,11610 <IntrPriorityGet+0xc0>
D:\CreateIC\01_CPIPC\riscv\RISCV_ENC_20220421\Firmware_true\app_prj\app_demo\Debug/../src/Bsp/Driver/hme_plic.c:149 (discriminator 13)
   11600:	09500593          	li	a1,149
   11604:	000157b7          	lui	a5,0x15
   11608:	0c878513          	addi	a0,a5,200 # 150c8 <__init_array_end+0x5c>
   1160c:	575010ef          	jal	ra,13380 <assert_failed>
D:\CreateIC\01_CPIPC\riscv\RISCV_ENC_20220421\Firmware_true\app_prj\app_demo\Debug/../src/Bsp/Driver/hme_plic.c:151

	uint32_t ulPriority = EN_PRIORITY_MAX;
   11610:	00400793          	li	a5,4
   11614:	fef42623          	sw	a5,-20(s0)
D:\CreateIC\01_CPIPC\riscv\RISCV_ENC_20220421\Firmware_true\app_prj\app_demo\Debug/../src/Bsp/Driver/hme_plic.c:152
	uint32_t ulPriorityOffset = 0;
   11618:	fe042423          	sw	zero,-24(s0)
D:\CreateIC\01_CPIPC\riscv\RISCV_ENC_20220421\Firmware_true\app_prj\app_demo\Debug/../src/Bsp/Driver/hme_plic.c:154

	ulPriorityOffset = DevPriorityOffsetTableGet(usDevId);
   1161c:	fde45783          	lhu	a5,-34(s0)
   11620:	00078513          	mv	a0,a5
   11624:	c0dff0ef          	jal	ra,11230 <DevPriorityOffsetTableGet>
   11628:	fea42423          	sw	a0,-24(s0)
D:\CreateIC\01_CPIPC\riscv\RISCV_ENC_20220421\Firmware_true\app_prj\app_demo\Debug/../src/Bsp/Driver/hme_plic.c:155
	ulPriority = ReadReg32(PLIC_BASE_ADDR + ulPriorityOffset);
   1162c:	fe842703          	lw	a4,-24(s0)
   11630:	f8c007b7          	lui	a5,0xf8c00
   11634:	00f707b3          	add	a5,a4,a5
   11638:	0007a783          	lw	a5,0(a5) # f8c00000 <__freertos_irq_stack_top+0xf8bc19f0>
   1163c:	fef42623          	sw	a5,-20(s0)
D:\CreateIC\01_CPIPC\riscv\RISCV_ENC_20220421\Firmware_true\app_prj\app_demo\Debug/../src/Bsp/Driver/hme_plic.c:157

	return ulPriority;
   11640:	fec42783          	lw	a5,-20(s0)
D:\CreateIC\01_CPIPC\riscv\RISCV_ENC_20220421\Firmware_true\app_prj\app_demo\Debug/../src/Bsp/Driver/hme_plic.c:158
}
   11644:	00078513          	mv	a0,a5
   11648:	02c12083          	lw	ra,44(sp)
   1164c:	02812403          	lw	s0,40(sp)
   11650:	03010113          	addi	sp,sp,48
   11654:	00008067          	ret

00011658 <PlicEnableSet>:
PlicEnableSet():
D:\CreateIC\01_CPIPC\riscv\RISCV_ENC_20220421\Firmware_true\app_prj\app_demo\Debug/../src/Bsp/Driver/hme_plic.c:184
 * @brief  设备PLIC的中断使能配置
 * @param  ulEnable：中断使能值
 * @retval 无
 *****************************************************************/
void PlicEnableSet(uint32_t ulEnable)
{
   11658:	fd010113          	addi	sp,sp,-48
   1165c:	02112623          	sw	ra,44(sp)
   11660:	02812423          	sw	s0,40(sp)
   11664:	03010413          	addi	s0,sp,48
   11668:	fca42e23          	sw	a0,-36(s0)
D:\CreateIC\01_CPIPC\riscv\RISCV_ENC_20220421\Firmware_true\app_prj\app_demo\Debug/../src/Bsp/Driver/hme_plic.c:185
	uint32_t ulTemRmableVal = 0;
   1166c:	fe042623          	sw	zero,-20(s0)
D:\CreateIC\01_CPIPC\riscv\RISCV_ENC_20220421\Firmware_true\app_prj\app_demo\Debug/../src/Bsp/Driver/hme_plic.c:186
	ulTemRmableVal = PlicEnableGet();
   11670:	038000ef          	jal	ra,116a8 <PlicEnableGet>
   11674:	fea42623          	sw	a0,-20(s0)
D:\CreateIC\01_CPIPC\riscv\RISCV_ENC_20220421\Firmware_true\app_prj\app_demo\Debug/../src/Bsp/Driver/hme_plic.c:187
	ulTemRmableVal = ulTemRmableVal | ulEnable;
   11678:	fec42703          	lw	a4,-20(s0)
   1167c:	fdc42783          	lw	a5,-36(s0)
   11680:	00f767b3          	or	a5,a4,a5
   11684:	fef42623          	sw	a5,-20(s0)
D:\CreateIC\01_CPIPC\riscv\RISCV_ENC_20220421\Firmware_true\app_prj\app_demo\Debug/../src/Bsp/Driver/hme_plic.c:188
	WriteReg32(PLIC_BASE_ADDR + DEF_PLIC_INT_IE_OFFSET, ulTemRmableVal);
   11688:	f8c027b7          	lui	a5,0xf8c02
   1168c:	fec42703          	lw	a4,-20(s0)
   11690:	00e7a023          	sw	a4,0(a5) # f8c02000 <__freertos_irq_stack_top+0xf8bc39f0>
D:\CreateIC\01_CPIPC\riscv\RISCV_ENC_20220421\Firmware_true\app_prj\app_demo\Debug/../src/Bsp/Driver/hme_plic.c:189
}
   11694:	00000013          	nop
   11698:	02c12083          	lw	ra,44(sp)
   1169c:	02812403          	lw	s0,40(sp)
   116a0:	03010113          	addi	sp,sp,48
   116a4:	00008067          	ret

000116a8 <PlicEnableGet>:
PlicEnableGet():
D:\CreateIC\01_CPIPC\riscv\RISCV_ENC_20220421\Firmware_true\app_prj\app_demo\Debug/../src/Bsp/Driver/hme_plic.c:197
 * @brief  设备PLIC的中断使能值获取
 * @param  无
 * @retval uint32_t：返回中断使能控制参数
 *****************************************************************/
uint32_t PlicEnableGet(void)
{
   116a8:	ff010113          	addi	sp,sp,-16
   116ac:	00812623          	sw	s0,12(sp)
   116b0:	01010413          	addi	s0,sp,16
D:\CreateIC\01_CPIPC\riscv\RISCV_ENC_20220421\Firmware_true\app_prj\app_demo\Debug/../src/Bsp/Driver/hme_plic.c:198
	return ReadReg32(PLIC_BASE_ADDR + DEF_PLIC_INT_IE_OFFSET);
   116b4:	f8c027b7          	lui	a5,0xf8c02
   116b8:	0007a783          	lw	a5,0(a5) # f8c02000 <__freertos_irq_stack_top+0xf8bc39f0>
D:\CreateIC\01_CPIPC\riscv\RISCV_ENC_20220421\Firmware_true\app_prj\app_demo\Debug/../src/Bsp/Driver/hme_plic.c:199
}
   116bc:	00078513          	mv	a0,a5
   116c0:	00c12403          	lw	s0,12(sp)
   116c4:	01010113          	addi	sp,sp,16
   116c8:	00008067          	ret

000116cc <PlicThresholdSet>:
PlicThresholdSet():
D:\CreateIC\01_CPIPC\riscv\RISCV_ENC_20220421\Firmware_true\app_prj\app_demo\Debug/../src/Bsp/Driver/hme_plic.c:207
 * @brief  PLIC的中断阈值设置
 * @param  ucPlicThreshold：中断阈值参数
 * @retval 无
 *****************************************************************/
void PlicThresholdSet(uint8_t ucPlicThreshold)
{
   116cc:	fe010113          	addi	sp,sp,-32
   116d0:	00112e23          	sw	ra,28(sp)
   116d4:	00812c23          	sw	s0,24(sp)
   116d8:	02010413          	addi	s0,sp,32
   116dc:	00050793          	mv	a5,a0
   116e0:	fef407a3          	sb	a5,-17(s0)
D:\CreateIC\01_CPIPC\riscv\RISCV_ENC_20220421\Firmware_true\app_prj\app_demo\Debug/../src/Bsp/Driver/hme_plic.c:208
	assert_param(IS_PLIC_PRIORITY(ucPlicThreshold));
   116e4:	fef44783          	lbu	a5,-17(s0)
   116e8:	02078c63          	beqz	a5,11720 <PlicThresholdSet+0x54>
D:\CreateIC\01_CPIPC\riscv\RISCV_ENC_20220421\Firmware_true\app_prj\app_demo\Debug/../src/Bsp/Driver/hme_plic.c:208 (discriminator 1)
   116ec:	fef44703          	lbu	a4,-17(s0)
   116f0:	00100793          	li	a5,1
   116f4:	02f70663          	beq	a4,a5,11720 <PlicThresholdSet+0x54>
D:\CreateIC\01_CPIPC\riscv\RISCV_ENC_20220421\Firmware_true\app_prj\app_demo\Debug/../src/Bsp/Driver/hme_plic.c:208 (discriminator 2)
   116f8:	fef44703          	lbu	a4,-17(s0)
   116fc:	00200793          	li	a5,2
   11700:	02f70063          	beq	a4,a5,11720 <PlicThresholdSet+0x54>
D:\CreateIC\01_CPIPC\riscv\RISCV_ENC_20220421\Firmware_true\app_prj\app_demo\Debug/../src/Bsp/Driver/hme_plic.c:208 (discriminator 3)
   11704:	fef44703          	lbu	a4,-17(s0)
   11708:	00300793          	li	a5,3
   1170c:	00f70a63          	beq	a4,a5,11720 <PlicThresholdSet+0x54>
D:\CreateIC\01_CPIPC\riscv\RISCV_ENC_20220421\Firmware_true\app_prj\app_demo\Debug/../src/Bsp/Driver/hme_plic.c:208 (discriminator 4)
   11710:	0d000593          	li	a1,208
   11714:	000157b7          	lui	a5,0x15
   11718:	0c878513          	addi	a0,a5,200 # 150c8 <__init_array_end+0x5c>
   1171c:	465010ef          	jal	ra,13380 <assert_failed>
D:\CreateIC\01_CPIPC\riscv\RISCV_ENC_20220421\Firmware_true\app_prj\app_demo\Debug/../src/Bsp/Driver/hme_plic.c:210

	WriteReg32(PLIC_BASE_ADDR + DEF_PLIC_INT_THRESHOLD_OFFSET, ucPlicThreshold);
   11720:	f8e007b7          	lui	a5,0xf8e00
   11724:	fef44703          	lbu	a4,-17(s0)
   11728:	00e7a023          	sw	a4,0(a5) # f8e00000 <__freertos_irq_stack_top+0xf8dc19f0>
D:\CreateIC\01_CPIPC\riscv\RISCV_ENC_20220421\Firmware_true\app_prj\app_demo\Debug/../src/Bsp/Driver/hme_plic.c:211
}
   1172c:	00000013          	nop
   11730:	01c12083          	lw	ra,28(sp)
   11734:	01812403          	lw	s0,24(sp)
   11738:	02010113          	addi	sp,sp,32
   1173c:	00008067          	ret

00011740 <PlicThresholdGet>:
PlicThresholdGet():
D:\CreateIC\01_CPIPC\riscv\RISCV_ENC_20220421\Firmware_true\app_prj\app_demo\Debug/../src/Bsp/Driver/hme_plic.c:219
 * @brief  PLIC的中断阈值获取
 * @param  无
 * @retval uint8_t：返回中断阈值
 *****************************************************************/
uint8_t PlicThresholdGet(void)
{
   11740:	ff010113          	addi	sp,sp,-16
   11744:	00812623          	sw	s0,12(sp)
   11748:	01010413          	addi	s0,sp,16
D:\CreateIC\01_CPIPC\riscv\RISCV_ENC_20220421\Firmware_true\app_prj\app_demo\Debug/../src/Bsp/Driver/hme_plic.c:220
    return ReadReg32(PLIC_BASE_ADDR + DEF_PLIC_INT_THRESHOLD_OFFSET);
   1174c:	f8e007b7          	lui	a5,0xf8e00
   11750:	0007a783          	lw	a5,0(a5) # f8e00000 <__freertos_irq_stack_top+0xf8dc19f0>
   11754:	0ff7f793          	andi	a5,a5,255
D:\CreateIC\01_CPIPC\riscv\RISCV_ENC_20220421\Firmware_true\app_prj\app_demo\Debug/../src/Bsp/Driver/hme_plic.c:221
}
   11758:	00078513          	mv	a0,a5
   1175c:	00c12403          	lw	s0,12(sp)
   11760:	01010113          	addi	sp,sp,16
   11764:	00008067          	ret

00011768 <PlicIntrHandleRegister>:
PlicIntrHandleRegister():
D:\CreateIC\01_CPIPC\riscv\RISCV_ENC_20220421\Firmware_true\app_prj\app_demo\Debug/../src/Bsp/Driver/hme_plic.c:229
 * @brief  PLIC的中断注册函数
 * @param  pstRegParam：中断注册参数指针， usDevId：设备ID
 * @retval 无
 *****************************************************************/
void PlicIntrHandleRegister(PST_PLIC_REG_PARAM pstRegParam, uint16_t usDevId)
{
   11768:	fe010113          	addi	sp,sp,-32
   1176c:	00112e23          	sw	ra,28(sp)
   11770:	00812c23          	sw	s0,24(sp)
   11774:	02010413          	addi	s0,sp,32
   11778:	fea42623          	sw	a0,-20(s0)
   1177c:	00058793          	mv	a5,a1
   11780:	fef41523          	sh	a5,-22(s0)
D:\CreateIC\01_CPIPC\riscv\RISCV_ENC_20220421\Firmware_true\app_prj\app_demo\Debug/../src/Bsp/Driver/hme_plic.c:230
	assert_param(IS_DEV_ID(usDevId));
   11784:	fea45783          	lhu	a5,-22(s0)
   11788:	0a078263          	beqz	a5,1182c <PlicIntrHandleRegister+0xc4>
D:\CreateIC\01_CPIPC\riscv\RISCV_ENC_20220421\Firmware_true\app_prj\app_demo\Debug/../src/Bsp/Driver/hme_plic.c:230 (discriminator 1)
   1178c:	fea45703          	lhu	a4,-22(s0)
   11790:	00100793          	li	a5,1
   11794:	08f70c63          	beq	a4,a5,1182c <PlicIntrHandleRegister+0xc4>
D:\CreateIC\01_CPIPC\riscv\RISCV_ENC_20220421\Firmware_true\app_prj\app_demo\Debug/../src/Bsp/Driver/hme_plic.c:230 (discriminator 2)
   11798:	fea45703          	lhu	a4,-22(s0)
   1179c:	00200793          	li	a5,2
   117a0:	08f70663          	beq	a4,a5,1182c <PlicIntrHandleRegister+0xc4>
D:\CreateIC\01_CPIPC\riscv\RISCV_ENC_20220421\Firmware_true\app_prj\app_demo\Debug/../src/Bsp/Driver/hme_plic.c:230 (discriminator 3)
   117a4:	fea45703          	lhu	a4,-22(s0)
   117a8:	00300793          	li	a5,3
   117ac:	08f70063          	beq	a4,a5,1182c <PlicIntrHandleRegister+0xc4>
D:\CreateIC\01_CPIPC\riscv\RISCV_ENC_20220421\Firmware_true\app_prj\app_demo\Debug/../src/Bsp/Driver/hme_plic.c:230 (discriminator 4)
   117b0:	fea45703          	lhu	a4,-22(s0)
   117b4:	00400793          	li	a5,4
   117b8:	06f70a63          	beq	a4,a5,1182c <PlicIntrHandleRegister+0xc4>
D:\CreateIC\01_CPIPC\riscv\RISCV_ENC_20220421\Firmware_true\app_prj\app_demo\Debug/../src/Bsp/Driver/hme_plic.c:230 (discriminator 5)
   117bc:	fea45703          	lhu	a4,-22(s0)
   117c0:	00500793          	li	a5,5
   117c4:	06f70463          	beq	a4,a5,1182c <PlicIntrHandleRegister+0xc4>
D:\CreateIC\01_CPIPC\riscv\RISCV_ENC_20220421\Firmware_true\app_prj\app_demo\Debug/../src/Bsp/Driver/hme_plic.c:230 (discriminator 6)
   117c8:	fea45703          	lhu	a4,-22(s0)
   117cc:	00600793          	li	a5,6
   117d0:	04f70e63          	beq	a4,a5,1182c <PlicIntrHandleRegister+0xc4>
D:\CreateIC\01_CPIPC\riscv\RISCV_ENC_20220421\Firmware_true\app_prj\app_demo\Debug/../src/Bsp/Driver/hme_plic.c:230 (discriminator 7)
   117d4:	fea45703          	lhu	a4,-22(s0)
   117d8:	00700793          	li	a5,7
   117dc:	04f70863          	beq	a4,a5,1182c <PlicIntrHandleRegister+0xc4>
D:\CreateIC\01_CPIPC\riscv\RISCV_ENC_20220421\Firmware_true\app_prj\app_demo\Debug/../src/Bsp/Driver/hme_plic.c:230 (discriminator 8)
   117e0:	fea45703          	lhu	a4,-22(s0)
   117e4:	00800793          	li	a5,8
   117e8:	04f70263          	beq	a4,a5,1182c <PlicIntrHandleRegister+0xc4>
D:\CreateIC\01_CPIPC\riscv\RISCV_ENC_20220421\Firmware_true\app_prj\app_demo\Debug/../src/Bsp/Driver/hme_plic.c:230 (discriminator 9)
   117ec:	fea45703          	lhu	a4,-22(s0)
   117f0:	00900793          	li	a5,9
   117f4:	02f70c63          	beq	a4,a5,1182c <PlicIntrHandleRegister+0xc4>
D:\CreateIC\01_CPIPC\riscv\RISCV_ENC_20220421\Firmware_true\app_prj\app_demo\Debug/../src/Bsp/Driver/hme_plic.c:230 (discriminator 10)
   117f8:	fea45703          	lhu	a4,-22(s0)
   117fc:	00a00793          	li	a5,10
   11800:	02f70663          	beq	a4,a5,1182c <PlicIntrHandleRegister+0xc4>
D:\CreateIC\01_CPIPC\riscv\RISCV_ENC_20220421\Firmware_true\app_prj\app_demo\Debug/../src/Bsp/Driver/hme_plic.c:230 (discriminator 11)
   11804:	fea45703          	lhu	a4,-22(s0)
   11808:	00b00793          	li	a5,11
   1180c:	02f70063          	beq	a4,a5,1182c <PlicIntrHandleRegister+0xc4>
D:\CreateIC\01_CPIPC\riscv\RISCV_ENC_20220421\Firmware_true\app_prj\app_demo\Debug/../src/Bsp/Driver/hme_plic.c:230 (discriminator 12)
   11810:	fea45703          	lhu	a4,-22(s0)
   11814:	00c00793          	li	a5,12
   11818:	00f70a63          	beq	a4,a5,1182c <PlicIntrHandleRegister+0xc4>
D:\CreateIC\01_CPIPC\riscv\RISCV_ENC_20220421\Firmware_true\app_prj\app_demo\Debug/../src/Bsp/Driver/hme_plic.c:230 (discriminator 13)
   1181c:	0e600593          	li	a1,230
   11820:	000157b7          	lui	a5,0x15
   11824:	0c878513          	addi	a0,a5,200 # 150c8 <__init_array_end+0x5c>
   11828:	359010ef          	jal	ra,13380 <assert_failed>
D:\CreateIC\01_CPIPC\riscv\RISCV_ENC_20220421\Firmware_true\app_prj\app_demo\Debug/../src/Bsp/Driver/hme_plic.c:231
	assert_param(NULL != pstRegParam);
   1182c:	fec42783          	lw	a5,-20(s0)
   11830:	00079a63          	bnez	a5,11844 <PlicIntrHandleRegister+0xdc>
D:\CreateIC\01_CPIPC\riscv\RISCV_ENC_20220421\Firmware_true\app_prj\app_demo\Debug/../src/Bsp/Driver/hme_plic.c:231 (discriminator 1)
   11834:	0e700593          	li	a1,231
   11838:	000157b7          	lui	a5,0x15
   1183c:	0c878513          	addi	a0,a5,200 # 150c8 <__init_array_end+0x5c>
   11840:	341010ef          	jal	ra,13380 <assert_failed>
D:\CreateIC\01_CPIPC\riscv\RISCV_ENC_20220421\Firmware_true\app_prj\app_demo\Debug/../src/Bsp/Driver/hme_plic.c:233

	astPlicReg[usDevId].usIntrId = pstRegParam->usIntrId;
   11844:	fea45703          	lhu	a4,-22(s0)
   11848:	fec42783          	lw	a5,-20(s0)
   1184c:	0007d683          	lhu	a3,0(a5)
   11850:	000157b7          	lui	a5,0x15
   11854:	51078613          	addi	a2,a5,1296 # 15510 <astPlicReg>
   11858:	00070793          	mv	a5,a4
   1185c:	00179793          	slli	a5,a5,0x1
   11860:	00e787b3          	add	a5,a5,a4
   11864:	00279793          	slli	a5,a5,0x2
   11868:	00f607b3          	add	a5,a2,a5
   1186c:	00d79023          	sh	a3,0(a5)
D:\CreateIC\01_CPIPC\riscv\RISCV_ENC_20220421\Firmware_true\app_prj\app_demo\Debug/../src/Bsp/Driver/hme_plic.c:234
	astPlicReg[usDevId].IntrHander = pstRegParam->IntrHander;
   11870:	fea45703          	lhu	a4,-22(s0)
   11874:	fec42783          	lw	a5,-20(s0)
   11878:	0047a683          	lw	a3,4(a5)
   1187c:	000157b7          	lui	a5,0x15
   11880:	51078613          	addi	a2,a5,1296 # 15510 <astPlicReg>
   11884:	00070793          	mv	a5,a4
   11888:	00179793          	slli	a5,a5,0x1
   1188c:	00e787b3          	add	a5,a5,a4
   11890:	00279793          	slli	a5,a5,0x2
   11894:	00f607b3          	add	a5,a2,a5
   11898:	00d7a223          	sw	a3,4(a5)
D:\CreateIC\01_CPIPC\riscv\RISCV_ENC_20220421\Firmware_true\app_prj\app_demo\Debug/../src/Bsp/Driver/hme_plic.c:235
	astPlicReg[usDevId].ptrBackCall = pstRegParam->ptrBackCall;
   1189c:	fea45703          	lhu	a4,-22(s0)
   118a0:	fec42783          	lw	a5,-20(s0)
   118a4:	0087a683          	lw	a3,8(a5)
   118a8:	000157b7          	lui	a5,0x15
   118ac:	51078613          	addi	a2,a5,1296 # 15510 <astPlicReg>
   118b0:	00070793          	mv	a5,a4
   118b4:	00179793          	slli	a5,a5,0x1
   118b8:	00e787b3          	add	a5,a5,a4
   118bc:	00279793          	slli	a5,a5,0x2
   118c0:	00f607b3          	add	a5,a2,a5
   118c4:	00d7a423          	sw	a3,8(a5)
D:\CreateIC\01_CPIPC\riscv\RISCV_ENC_20220421\Firmware_true\app_prj\app_demo\Debug/../src/Bsp/Driver/hme_plic.c:236
}
   118c8:	00000013          	nop
   118cc:	01c12083          	lw	ra,28(sp)
   118d0:	01812403          	lw	s0,24(sp)
   118d4:	02010113          	addi	sp,sp,32
   118d8:	00008067          	ret

000118dc <ExternalInterruptExcute>:
ExternalInterruptExcute():
D:\CreateIC\01_CPIPC\riscv\RISCV_ENC_20220421\Firmware_true\app_prj\app_demo\Debug/../src/Bsp/Driver/hme_plic.c:244
 * @brief  PLIC中断执行接口
 * @param  无
 * @retval 无
 *****************************************************************/
void ExternalInterruptExcute(void)
{
   118dc:	fd010113          	addi	sp,sp,-48
   118e0:	02112623          	sw	ra,44(sp)
   118e4:	02812423          	sw	s0,40(sp)
   118e8:	03010413          	addi	s0,sp,48
D:\CreateIC\01_CPIPC\riscv\RISCV_ENC_20220421\Firmware_true\app_prj\app_demo\Debug/../src/Bsp/Driver/hme_plic.c:245
	uint16_t usIntrExcFlage = 0;
   118ec:	fe041123          	sh	zero,-30(s0)
D:\CreateIC\01_CPIPC\riscv\RISCV_ENC_20220421\Firmware_true\app_prj\app_demo\Debug/../src/Bsp/Driver/hme_plic.c:246
	uint16_t usIntrId = 0;
   118f0:	fe041023          	sh	zero,-32(s0)
D:\CreateIC\01_CPIPC\riscv\RISCV_ENC_20220421\Firmware_true\app_prj\app_demo\Debug/../src/Bsp/Driver/hme_plic.c:247
	uint16_t usRegTableIntrId = 0;
   118f4:	fe041723          	sh	zero,-18(s0)
D:\CreateIC\01_CPIPC\riscv\RISCV_ENC_20220421\Firmware_true\app_prj\app_demo\Debug/../src/Bsp/Driver/hme_plic.c:248
	uint16_t usIntrTableId = 0;
   118f8:	fc041f23          	sh	zero,-34(s0)
D:\CreateIC\01_CPIPC\riscv\RISCV_ENC_20220421\Firmware_true\app_prj\app_demo\Debug/../src/Bsp/Driver/hme_plic.c:249
	uint8_t ulPriority = 0;
   118fc:	fc040ea3          	sb	zero,-35(s0)
D:\CreateIC\01_CPIPC\riscv\RISCV_ENC_20220421\Firmware_true\app_prj\app_demo\Debug/../src/Bsp/Driver/hme_plic.c:250
	uint8_t ulThresholdVal = 0;
   11900:	fc040e23          	sb	zero,-36(s0)
D:\CreateIC\01_CPIPC\riscv\RISCV_ENC_20220421\Firmware_true\app_prj\app_demo\Debug/../src/Bsp/Driver/hme_plic.c:251
	EN_DEV_ID enDevTableId = EN_DEV_ID_MAX;
   11904:	00d00793          	li	a5,13
   11908:	fef42423          	sw	a5,-24(s0)
D:\CreateIC\01_CPIPC\riscv\RISCV_ENC_20220421\Firmware_true\app_prj\app_demo\Debug/../src/Bsp/Driver/hme_plic.c:252
	EN_DEV_ID enIdCnt = EN_DEV_ID_0;
   1190c:	fe042223          	sw	zero,-28(s0)
D:\CreateIC\01_CPIPC\riscv\RISCV_ENC_20220421\Firmware_true\app_prj\app_demo\Debug/../src/Bsp/Driver/hme_plic.c:255


	uint32_t ulMstatus = csr_read(mstatus);
   11910:	300027f3          	csrr	a5,mstatus
   11914:	00078093          	mv	ra,a5
   11918:	00008793          	mv	a5,ra
   1191c:	fcf42c23          	sw	a5,-40(s0)
D:\CreateIC\01_CPIPC\riscv\RISCV_ENC_20220421\Firmware_true\app_prj\app_demo\Debug/../src/Bsp/Driver/hme_plic.c:257

	ulThresholdVal = PlicThresholdGet();
   11920:	e21ff0ef          	jal	ra,11740 <PlicThresholdGet>
   11924:	00050793          	mv	a5,a0
   11928:	fcf40e23          	sb	a5,-36(s0)
D:\CreateIC\01_CPIPC\riscv\RISCV_ENC_20220421\Firmware_true\app_prj\app_demo\Debug/../src/Bsp/Driver/hme_plic.c:258
	usIntrId = PlicClaimGet();
   1192c:	fb0ff0ef          	jal	ra,110dc <PlicClaimGet>
   11930:	00050793          	mv	a5,a0
   11934:	fef41023          	sh	a5,-32(s0)
D:\CreateIC\01_CPIPC\riscv\RISCV_ENC_20220421\Firmware_true\app_prj\app_demo\Debug/../src/Bsp/Driver/hme_plic.c:259
	for (enIdCnt = EN_DEV_ID_0; enIdCnt < EN_DEV_ID_MAX;  enIdCnt = enIdCnt + 1)
   11938:	fe042223          	sw	zero,-28(s0)
   1193c:	0580006f          	j	11994 <ExternalInterruptExcute+0xb8>
D:\CreateIC\01_CPIPC\riscv\RISCV_ENC_20220421\Firmware_true\app_prj\app_demo\Debug/../src/Bsp/Driver/hme_plic.c:261
	{
		usIntrTableId = astDevParam[enIdCnt].usIntrId;
   11940:	000157b7          	lui	a5,0x15
   11944:	3b478713          	addi	a4,a5,948 # 153b4 <astDevParam>
   11948:	fe442783          	lw	a5,-28(s0)
   1194c:	00479793          	slli	a5,a5,0x4
   11950:	00f707b3          	add	a5,a4,a5
   11954:	0027d783          	lhu	a5,2(a5)
   11958:	fcf41f23          	sh	a5,-34(s0)
D:\CreateIC\01_CPIPC\riscv\RISCV_ENC_20220421\Firmware_true\app_prj\app_demo\Debug/../src/Bsp/Driver/hme_plic.c:262
		if(usIntrId == usIntrTableId)
   1195c:	fe045703          	lhu	a4,-32(s0)
   11960:	fde45783          	lhu	a5,-34(s0)
   11964:	02f71263          	bne	a4,a5,11988 <ExternalInterruptExcute+0xac>
D:\CreateIC\01_CPIPC\riscv\RISCV_ENC_20220421\Firmware_true\app_prj\app_demo\Debug/../src/Bsp/Driver/hme_plic.c:264
		{
			enDevTableId = astDevParam[enIdCnt].usDevId;
   11968:	000157b7          	lui	a5,0x15
   1196c:	3b478713          	addi	a4,a5,948 # 153b4 <astDevParam>
   11970:	fe442783          	lw	a5,-28(s0)
   11974:	00479793          	slli	a5,a5,0x4
   11978:	00f707b3          	add	a5,a4,a5
   1197c:	0007d783          	lhu	a5,0(a5)
   11980:	fef42423          	sw	a5,-24(s0)
D:\CreateIC\01_CPIPC\riscv\RISCV_ENC_20220421\Firmware_true\app_prj\app_demo\Debug/../src/Bsp/Driver/hme_plic.c:265
			break;
   11984:	01c0006f          	j	119a0 <ExternalInterruptExcute+0xc4>
D:\CreateIC\01_CPIPC\riscv\RISCV_ENC_20220421\Firmware_true\app_prj\app_demo\Debug/../src/Bsp/Driver/hme_plic.c:259 (discriminator 2)
	for (enIdCnt = EN_DEV_ID_0; enIdCnt < EN_DEV_ID_MAX;  enIdCnt = enIdCnt + 1)
   11988:	fe442783          	lw	a5,-28(s0)
   1198c:	00178793          	addi	a5,a5,1
   11990:	fef42223          	sw	a5,-28(s0)
D:\CreateIC\01_CPIPC\riscv\RISCV_ENC_20220421\Firmware_true\app_prj\app_demo\Debug/../src/Bsp/Driver/hme_plic.c:259 (discriminator 1)
   11994:	fe442703          	lw	a4,-28(s0)
   11998:	00c00793          	li	a5,12
   1199c:	fae7f2e3          	bgeu	a5,a4,11940 <ExternalInterruptExcute+0x64>
D:\CreateIC\01_CPIPC\riscv\RISCV_ENC_20220421\Firmware_true\app_prj\app_demo\Debug/../src/Bsp/Driver/hme_plic.c:269
		}
	}

    if (enDevTableId < EN_DEV_ID_MAX)
   119a0:	fe842703          	lw	a4,-24(s0)
   119a4:	00c00793          	li	a5,12
   119a8:	06e7e663          	bltu	a5,a4,11a14 <ExternalInterruptExcute+0x138>
D:\CreateIC\01_CPIPC\riscv\RISCV_ENC_20220421\Firmware_true\app_prj\app_demo\Debug/../src/Bsp/Driver/hme_plic.c:271
    {
    	ulPriority =IntrPriorityGet(enDevTableId);
   119ac:	fe842783          	lw	a5,-24(s0)
   119b0:	01079793          	slli	a5,a5,0x10
   119b4:	0107d793          	srli	a5,a5,0x10
   119b8:	00078513          	mv	a0,a5
   119bc:	b95ff0ef          	jal	ra,11550 <IntrPriorityGet>
   119c0:	00050793          	mv	a5,a0
   119c4:	fcf40ea3          	sb	a5,-35(s0)
D:\CreateIC\01_CPIPC\riscv\RISCV_ENC_20220421\Firmware_true\app_prj\app_demo\Debug/../src/Bsp/Driver/hme_plic.c:272
    	PlicThresholdSet(ulPriority);
   119c8:	fdd44783          	lbu	a5,-35(s0)
   119cc:	00078513          	mv	a0,a5
   119d0:	cfdff0ef          	jal	ra,116cc <PlicThresholdSet>
D:\CreateIC\01_CPIPC\riscv\RISCV_ENC_20220421\Firmware_true\app_prj\app_demo\Debug/../src/Bsp/Driver/hme_plic.c:273
    	csr_write(mstatus, ulMstatus | MSTATUS_MIE);
   119d4:	fd842783          	lw	a5,-40(s0)
   119d8:	0087e793          	ori	a5,a5,8
   119dc:	fcf42a23          	sw	a5,-44(s0)
   119e0:	fd442783          	lw	a5,-44(s0)
   119e4:	30079073          	csrw	mstatus,a5
D:\CreateIC\01_CPIPC\riscv\RISCV_ENC_20220421\Firmware_true\app_prj\app_demo\Debug/../src/Bsp/Driver/hme_plic.c:274
    	usRegTableIntrId = astPlicReg[enDevTableId].usIntrId;
   119e8:	000157b7          	lui	a5,0x15
   119ec:	51078693          	addi	a3,a5,1296 # 15510 <astPlicReg>
   119f0:	fe842703          	lw	a4,-24(s0)
   119f4:	00070793          	mv	a5,a4
   119f8:	00179793          	slli	a5,a5,0x1
   119fc:	00e787b3          	add	a5,a5,a4
   11a00:	00279793          	slli	a5,a5,0x2
   11a04:	00f687b3          	add	a5,a3,a5
   11a08:	0007d783          	lhu	a5,0(a5)
   11a0c:	fef41723          	sh	a5,-18(s0)
   11a10:	0080006f          	j	11a18 <ExternalInterruptExcute+0x13c>
D:\CreateIC\01_CPIPC\riscv\RISCV_ENC_20220421\Firmware_true\app_prj\app_demo\Debug/../src/Bsp/Driver/hme_plic.c:278
    }
    else
    {
    	PlicErrExcute();
   11a14:	0bc000ef          	jal	ra,11ad0 <PlicErrExcute>
D:\CreateIC\01_CPIPC\riscv\RISCV_ENC_20220421\Firmware_true\app_prj\app_demo\Debug/../src/Bsp/Driver/hme_plic.c:281
    }

    if ((usRegTableIntrId == usIntrId) && ( NULL != astPlicReg[enDevTableId].IntrHander))
   11a18:	fee45703          	lhu	a4,-18(s0)
   11a1c:	fe045783          	lhu	a5,-32(s0)
   11a20:	08f71c63          	bne	a4,a5,11ab8 <ExternalInterruptExcute+0x1dc>
D:\CreateIC\01_CPIPC\riscv\RISCV_ENC_20220421\Firmware_true\app_prj\app_demo\Debug/../src/Bsp/Driver/hme_plic.c:281 (discriminator 1)
   11a24:	000157b7          	lui	a5,0x15
   11a28:	51078693          	addi	a3,a5,1296 # 15510 <astPlicReg>
   11a2c:	fe842703          	lw	a4,-24(s0)
   11a30:	00070793          	mv	a5,a4
   11a34:	00179793          	slli	a5,a5,0x1
   11a38:	00e787b3          	add	a5,a5,a4
   11a3c:	00279793          	slli	a5,a5,0x2
   11a40:	00f687b3          	add	a5,a3,a5
   11a44:	0047a783          	lw	a5,4(a5)
   11a48:	06078863          	beqz	a5,11ab8 <ExternalInterruptExcute+0x1dc>
D:\CreateIC\01_CPIPC\riscv\RISCV_ENC_20220421\Firmware_true\app_prj\app_demo\Debug/../src/Bsp/Driver/hme_plic.c:283
    {
    	astPlicReg[enDevTableId].IntrHander(astPlicReg[enDevTableId].ptrBackCall);
   11a4c:	000157b7          	lui	a5,0x15
   11a50:	51078693          	addi	a3,a5,1296 # 15510 <astPlicReg>
   11a54:	fe842703          	lw	a4,-24(s0)
   11a58:	00070793          	mv	a5,a4
   11a5c:	00179793          	slli	a5,a5,0x1
   11a60:	00e787b3          	add	a5,a5,a4
   11a64:	00279793          	slli	a5,a5,0x2
   11a68:	00f687b3          	add	a5,a3,a5
   11a6c:	0047a603          	lw	a2,4(a5)
   11a70:	000157b7          	lui	a5,0x15
   11a74:	51078693          	addi	a3,a5,1296 # 15510 <astPlicReg>
   11a78:	fe842703          	lw	a4,-24(s0)
   11a7c:	00070793          	mv	a5,a4
   11a80:	00179793          	slli	a5,a5,0x1
   11a84:	00e787b3          	add	a5,a5,a4
   11a88:	00279793          	slli	a5,a5,0x2
   11a8c:	00f687b3          	add	a5,a3,a5
   11a90:	0087a783          	lw	a5,8(a5)
   11a94:	00078513          	mv	a0,a5
   11a98:	000600e7          	jalr	a2
D:\CreateIC\01_CPIPC\riscv\RISCV_ENC_20220421\Firmware_true\app_prj\app_demo\Debug/../src/Bsp/Driver/hme_plic.c:284
    	PlicFinishNotice(usIntrId);
   11a9c:	fe045783          	lhu	a5,-32(s0)
   11aa0:	00078513          	mv	a0,a5
   11aa4:	e6cff0ef          	jal	ra,11110 <PlicFinishNotice>
D:\CreateIC\01_CPIPC\riscv\RISCV_ENC_20220421\Firmware_true\app_prj\app_demo\Debug/../src/Bsp/Driver/hme_plic.c:285
    	PlicThresholdSet(ulThresholdVal);
   11aa8:	fdc44783          	lbu	a5,-36(s0)
   11aac:	00078513          	mv	a0,a5
   11ab0:	c1dff0ef          	jal	ra,116cc <PlicThresholdSet>
   11ab4:	0080006f          	j	11abc <ExternalInterruptExcute+0x1e0>
D:\CreateIC\01_CPIPC\riscv\RISCV_ENC_20220421\Firmware_true\app_prj\app_demo\Debug/../src/Bsp/Driver/hme_plic.c:289
    }
    else
    {
    	PlicErrExcute();
   11ab8:	018000ef          	jal	ra,11ad0 <PlicErrExcute>
D:\CreateIC\01_CPIPC\riscv\RISCV_ENC_20220421\Firmware_true\app_prj\app_demo\Debug/../src/Bsp/Driver/hme_plic.c:291
    }
}
   11abc:	00000013          	nop
   11ac0:	02c12083          	lw	ra,44(sp)
   11ac4:	02812403          	lw	s0,40(sp)
   11ac8:	03010113          	addi	sp,sp,48
   11acc:	00008067          	ret

00011ad0 <PlicErrExcute>:
PlicErrExcute():
D:\CreateIC\01_CPIPC\riscv\RISCV_ENC_20220421\Firmware_true\app_prj\app_demo\Debug/../src/Bsp/Driver/hme_plic.c:295


void PlicErrExcute(void)
{
   11ad0:	ff010113          	addi	sp,sp,-16
   11ad4:	00112623          	sw	ra,12(sp)
   11ad8:	00812423          	sw	s0,8(sp)
   11adc:	01010413          	addi	s0,sp,16
D:\CreateIC\01_CPIPC\riscv\RISCV_ENC_20220421\Firmware_true\app_prj\app_demo\Debug/../src/Bsp/Driver/hme_plic.c:296
	printf("\n __PLIC Excute Err! \n");
   11ae0:	000157b7          	lui	a5,0x15
   11ae4:	0e878513          	addi	a0,a5,232 # 150e8 <__init_array_end+0x7c>
   11ae8:	3b0020ef          	jal	ra,13e98 <puts>
D:\CreateIC\01_CPIPC\riscv\RISCV_ENC_20220421\Firmware_true\app_prj\app_demo\Debug/../src/Bsp/Driver/hme_plic.c:297
}
   11aec:	00000013          	nop
   11af0:	00c12083          	lw	ra,12(sp)
   11af4:	00812403          	lw	s0,8(sp)
   11af8:	01010113          	addi	sp,sp,16
   11afc:	00008067          	ret

00011b00 <MachineTimerObjStructDeInit>:
MachineTimerObjStructDeInit():
D:\CreateIC\01_CPIPC\riscv\RISCV_ENC_20220421\Firmware_true\app_prj\app_demo\Debug/../src/Bsp/Driver/hme_timer.c:19
 * @brief  MachineTimer结构体默认初始化
 * @param  pstTimerObj：TImer对象
 * @retval 无
*****************************************************************/
void MachineTimerObjStructDeInit(PST_TIMER_ATTR pstTimerObj)
{
   11b00:	fe010113          	addi	sp,sp,-32
   11b04:	00112e23          	sw	ra,28(sp)
   11b08:	00812c23          	sw	s0,24(sp)
   11b0c:	02010413          	addi	s0,sp,32
   11b10:	fea42623          	sw	a0,-20(s0)
D:\CreateIC\01_CPIPC\riscv\RISCV_ENC_20220421\Firmware_true\app_prj\app_demo\Debug/../src/Bsp/Driver/hme_timer.c:20
	assert_param(NULL != pstTimerObj);
   11b14:	fec42783          	lw	a5,-20(s0)
   11b18:	00079a63          	bnez	a5,11b2c <MachineTimerObjStructDeInit+0x2c>
D:\CreateIC\01_CPIPC\riscv\RISCV_ENC_20220421\Firmware_true\app_prj\app_demo\Debug/../src/Bsp/Driver/hme_timer.c:20 (discriminator 1)
   11b1c:	01400593          	li	a1,20
   11b20:	000157b7          	lui	a5,0x15
   11b24:	10078513          	addi	a0,a5,256 # 15100 <__init_array_end+0x94>
   11b28:	059010ef          	jal	ra,13380 <assert_failed>
D:\CreateIC\01_CPIPC\riscv\RISCV_ENC_20220421\Firmware_true\app_prj\app_demo\Debug/../src/Bsp/Driver/hme_timer.c:22

    pstTimerObj->usDevId = DEF_MACHINE_TIMER_ID;
   11b2c:	fec42783          	lw	a5,-20(s0)
   11b30:	00079023          	sh	zero,0(a5)
D:\CreateIC\01_CPIPC\riscv\RISCV_ENC_20220421\Firmware_true\app_prj\app_demo\Debug/../src/Bsp/Driver/hme_timer.c:23
    pstTimerObj->ulCurTimerL = 0;
   11b34:	fec42783          	lw	a5,-20(s0)
   11b38:	0007a423          	sw	zero,8(a5)
D:\CreateIC\01_CPIPC\riscv\RISCV_ENC_20220421\Firmware_true\app_prj\app_demo\Debug/../src/Bsp/Driver/hme_timer.c:24
    pstTimerObj->ulCurTimerH = 0;
   11b3c:	fec42783          	lw	a5,-20(s0)
   11b40:	0007a623          	sw	zero,12(a5)
D:\CreateIC\01_CPIPC\riscv\RISCV_ENC_20220421\Firmware_true\app_prj\app_demo\Debug/../src/Bsp/Driver/hme_timer.c:25
    pstTimerObj->stPlicCfgParam.ucIntrEnFlage = ENABLE;
   11b44:	fec42783          	lw	a5,-20(s0)
   11b48:	00100713          	li	a4,1
   11b4c:	00e78823          	sb	a4,16(a5)
D:\CreateIC\01_CPIPC\riscv\RISCV_ENC_20220421\Firmware_true\app_prj\app_demo\Debug/../src/Bsp/Driver/hme_timer.c:26
    pstTimerObj->stPlicCfgParam.ucPriority = EN_PRIORITY_1;
   11b50:	fec42783          	lw	a5,-20(s0)
   11b54:	00100713          	li	a4,1
   11b58:	00e788a3          	sb	a4,17(a5)
D:\CreateIC\01_CPIPC\riscv\RISCV_ENC_20220421\Firmware_true\app_prj\app_demo\Debug/../src/Bsp/Driver/hme_timer.c:27
    pstTimerObj->ulIntrPeriod = DEF_TIMER_PERIOD;
   11b5c:	fec42783          	lw	a5,-20(s0)
   11b60:	027bd737          	lui	a4,0x27bd
   11b64:	86a70713          	addi	a4,a4,-1942 # 27bc86a <__freertos_irq_stack_top+0x277e25a>
   11b68:	00e7a223          	sw	a4,4(a5)
D:\CreateIC\01_CPIPC\riscv\RISCV_ENC_20220421\Firmware_true\app_prj\app_demo\Debug/../src/Bsp/Driver/hme_timer.c:28
    pstTimerObj->pstCtrller = DEV_MACH_TIMER;
   11b6c:	fec42783          	lw	a5,-20(s0)
   11b70:	f8001737          	lui	a4,0xf8001
   11b74:	00e7aa23          	sw	a4,20(a5)
D:\CreateIC\01_CPIPC\riscv\RISCV_ENC_20220421\Firmware_true\app_prj\app_demo\Debug/../src/Bsp/Driver/hme_timer.c:29
}
   11b78:	00000013          	nop
   11b7c:	01c12083          	lw	ra,28(sp)
   11b80:	01812403          	lw	s0,24(sp)
   11b84:	02010113          	addi	sp,sp,32
   11b88:	00008067          	ret

00011b8c <MachineTimerObjConfigInit>:
MachineTimerObjConfigInit():
D:\CreateIC\01_CPIPC\riscv\RISCV_ENC_20220421\Firmware_true\app_prj\app_demo\Debug/../src/Bsp/Driver/hme_timer.c:57
 * @brief  MachineTimer寄存器参数初始化
 * @param  pstTimerObj：TImer对象
 * @retval 无
*****************************************************************/
void MachineTimerObjConfigInit(PST_TIMER_ATTR pstTimerObj)
{
   11b8c:	fd010113          	addi	sp,sp,-48
   11b90:	02112623          	sw	ra,44(sp)
   11b94:	02812423          	sw	s0,40(sp)
   11b98:	03010413          	addi	s0,sp,48
   11b9c:	fca42e23          	sw	a0,-36(s0)
D:\CreateIC\01_CPIPC\riscv\RISCV_ENC_20220421\Firmware_true\app_prj\app_demo\Debug/../src/Bsp/Driver/hme_timer.c:58
	assert_param(NULL != pstTimerObj);
   11ba0:	fdc42783          	lw	a5,-36(s0)
   11ba4:	00079a63          	bnez	a5,11bb8 <MachineTimerObjConfigInit+0x2c>
D:\CreateIC\01_CPIPC\riscv\RISCV_ENC_20220421\Firmware_true\app_prj\app_demo\Debug/../src/Bsp/Driver/hme_timer.c:58 (discriminator 1)
   11ba8:	03a00593          	li	a1,58
   11bac:	000157b7          	lui	a5,0x15
   11bb0:	10078513          	addi	a0,a5,256 # 15100 <__init_array_end+0x94>
   11bb4:	7cc010ef          	jal	ra,13380 <assert_failed>
D:\CreateIC\01_CPIPC\riscv\RISCV_ENC_20220421\Firmware_true\app_prj\app_demo\Debug/../src/Bsp/Driver/hme_timer.c:59
	assert_param(NULL != pstTimerObj->pstCtrller);
   11bb8:	fdc42783          	lw	a5,-36(s0)
   11bbc:	0147a783          	lw	a5,20(a5)
   11bc0:	00079a63          	bnez	a5,11bd4 <MachineTimerObjConfigInit+0x48>
D:\CreateIC\01_CPIPC\riscv\RISCV_ENC_20220421\Firmware_true\app_prj\app_demo\Debug/../src/Bsp/Driver/hme_timer.c:59 (discriminator 1)
   11bc4:	03b00593          	li	a1,59
   11bc8:	000157b7          	lui	a5,0x15
   11bcc:	10078513          	addi	a0,a5,256 # 15100 <__init_array_end+0x94>
   11bd0:	7b0010ef          	jal	ra,13380 <assert_failed>
D:\CreateIC\01_CPIPC\riscv\RISCV_ENC_20220421\Firmware_true\app_prj\app_demo\Debug/../src/Bsp/Driver/hme_timer.c:60
	assert_param(pstTimerObj->usDevId == DEF_MACHINE_TIMER_ID);
   11bd4:	fdc42783          	lw	a5,-36(s0)
   11bd8:	0007d783          	lhu	a5,0(a5)
   11bdc:	00078a63          	beqz	a5,11bf0 <MachineTimerObjConfigInit+0x64>
D:\CreateIC\01_CPIPC\riscv\RISCV_ENC_20220421\Firmware_true\app_prj\app_demo\Debug/../src/Bsp/Driver/hme_timer.c:60 (discriminator 1)
   11be0:	03c00593          	li	a1,60
   11be4:	000157b7          	lui	a5,0x15
   11be8:	10078513          	addi	a0,a5,256 # 15100 <__init_array_end+0x94>
   11bec:	794010ef          	jal	ra,13380 <assert_failed>
D:\CreateIC\01_CPIPC\riscv\RISCV_ENC_20220421\Firmware_true\app_prj\app_demo\Debug/../src/Bsp/Driver/hme_timer.c:62

	ST_PLIC_REG_PARAM stTimerRegParam = {0};
   11bf0:	fe042023          	sw	zero,-32(s0)
   11bf4:	fe042223          	sw	zero,-28(s0)
   11bf8:	fe042423          	sw	zero,-24(s0)
D:\CreateIC\01_CPIPC\riscv\RISCV_ENC_20220421\Firmware_true\app_prj\app_demo\Debug/../src/Bsp/Driver/hme_timer.c:63
	uint32_t ulTimerEnVal= 0;
   11bfc:	fe042623          	sw	zero,-20(s0)
D:\CreateIC\01_CPIPC\riscv\RISCV_ENC_20220421\Firmware_true\app_prj\app_demo\Debug/../src/Bsp/Driver/hme_timer.c:65

    ulTimerEnVal = DevIntrEnTableGet(pstTimerObj->usDevId);
   11c00:	fdc42783          	lw	a5,-36(s0)
   11c04:	0007d783          	lhu	a5,0(a5)
   11c08:	00078513          	mv	a0,a5
   11c0c:	f10ff0ef          	jal	ra,1131c <DevIntrEnTableGet>
   11c10:	fea42623          	sw	a0,-20(s0)
D:\CreateIC\01_CPIPC\riscv\RISCV_ENC_20220421\Firmware_true\app_prj\app_demo\Debug/../src/Bsp/Driver/hme_timer.c:67

    stTimerRegParam.usIntrId    = DevIntrIdTableGet(pstTimerObj->usDevId);
   11c14:	fdc42783          	lw	a5,-36(s0)
   11c18:	0007d783          	lhu	a5,0(a5)
   11c1c:	00078513          	mv	a0,a5
   11c20:	d24ff0ef          	jal	ra,11144 <DevIntrIdTableGet>
   11c24:	00050793          	mv	a5,a0
   11c28:	fef41023          	sh	a5,-32(s0)
D:\CreateIC\01_CPIPC\riscv\RISCV_ENC_20220421\Firmware_true\app_prj\app_demo\Debug/../src/Bsp/Driver/hme_timer.c:68
    stTimerRegParam.IntrHander  = PlicMachineTimerHandle;
   11c2c:	000127b7          	lui	a5,0x12
   11c30:	f1878793          	addi	a5,a5,-232 # 11f18 <PlicMachineTimerHandle>
   11c34:	fef42223          	sw	a5,-28(s0)
D:\CreateIC\01_CPIPC\riscv\RISCV_ENC_20220421\Firmware_true\app_prj\app_demo\Debug/../src/Bsp/Driver/hme_timer.c:69
    stTimerRegParam.ptrBackCall = pstTimerObj;
   11c38:	fdc42783          	lw	a5,-36(s0)
   11c3c:	fef42423          	sw	a5,-24(s0)
D:\CreateIC\01_CPIPC\riscv\RISCV_ENC_20220421\Firmware_true\app_prj\app_demo\Debug/../src/Bsp/Driver/hme_timer.c:71

    if (pstTimerObj->stPlicCfgParam.ucIntrEnFlage)
   11c40:	fdc42783          	lw	a5,-36(s0)
   11c44:	0107c783          	lbu	a5,16(a5)
   11c48:	04078063          	beqz	a5,11c88 <MachineTimerObjConfigInit+0xfc>
D:\CreateIC\01_CPIPC\riscv\RISCV_ENC_20220421\Firmware_true\app_prj\app_demo\Debug/../src/Bsp/Driver/hme_timer.c:74
    {
    	//intr Priority set
    	IntrPrioritySet(pstTimerObj->usDevId, pstTimerObj->stPlicCfgParam.ucPriority);
   11c4c:	fdc42783          	lw	a5,-36(s0)
   11c50:	0007d703          	lhu	a4,0(a5)
   11c54:	fdc42783          	lw	a5,-36(s0)
   11c58:	0117c783          	lbu	a5,17(a5)
   11c5c:	00078593          	mv	a1,a5
   11c60:	00070513          	mv	a0,a4
   11c64:	fa4ff0ef          	jal	ra,11408 <IntrPrioritySet>
D:\CreateIC\01_CPIPC\riscv\RISCV_ENC_20220421\Firmware_true\app_prj\app_demo\Debug/../src/Bsp/Driver/hme_timer.c:76
        //intr handle register
    	PlicIntrHandleRegister(&stTimerRegParam, pstTimerObj->usDevId);
   11c68:	fdc42783          	lw	a5,-36(s0)
   11c6c:	0007d703          	lhu	a4,0(a5)
   11c70:	fe040793          	addi	a5,s0,-32
   11c74:	00070593          	mv	a1,a4
   11c78:	00078513          	mv	a0,a5
   11c7c:	aedff0ef          	jal	ra,11768 <PlicIntrHandleRegister>
D:\CreateIC\01_CPIPC\riscv\RISCV_ENC_20220421\Firmware_true\app_prj\app_demo\Debug/../src/Bsp/Driver/hme_timer.c:78
    	//intr handle enable
    	PlicEnableSet(ulTimerEnVal);
   11c80:	fec42503          	lw	a0,-20(s0)
   11c84:	9d5ff0ef          	jal	ra,11658 <PlicEnableSet>
D:\CreateIC\01_CPIPC\riscv\RISCV_ENC_20220421\Firmware_true\app_prj\app_demo\Debug/../src/Bsp/Driver/hme_timer.c:81
    }

    MachineTimerCmpAdjuct(pstTimerObj);
   11c88:	fdc42503          	lw	a0,-36(s0)
   11c8c:	018000ef          	jal	ra,11ca4 <MachineTimerCmpAdjuct>
D:\CreateIC\01_CPIPC\riscv\RISCV_ENC_20220421\Firmware_true\app_prj\app_demo\Debug/../src/Bsp/Driver/hme_timer.c:82
}
   11c90:	00000013          	nop
   11c94:	02c12083          	lw	ra,44(sp)
   11c98:	02812403          	lw	s0,40(sp)
   11c9c:	03010113          	addi	sp,sp,48
   11ca0:	00008067          	ret

00011ca4 <MachineTimerCmpAdjuct>:
MachineTimerCmpAdjuct():
D:\CreateIC\01_CPIPC\riscv\RISCV_ENC_20220421\Firmware_true\app_prj\app_demo\Debug/../src/Bsp/Driver/hme_timer.c:106
 * @brief  MachineTimer比较寄存器调整
 * @param  pstTimerObj：TImer对象
 * @retval 无
*****************************************************************/
void MachineTimerCmpAdjuct(PST_TIMER_ATTR pstTimerObj)
{
   11ca4:	fb010113          	addi	sp,sp,-80
   11ca8:	04112623          	sw	ra,76(sp)
   11cac:	04812423          	sw	s0,72(sp)
   11cb0:	05212223          	sw	s2,68(sp)
   11cb4:	05312023          	sw	s3,64(sp)
   11cb8:	03412e23          	sw	s4,60(sp)
   11cbc:	03512c23          	sw	s5,56(sp)
   11cc0:	03612a23          	sw	s6,52(sp)
   11cc4:	03712823          	sw	s7,48(sp)
   11cc8:	03812623          	sw	s8,44(sp)
   11ccc:	03912423          	sw	s9,40(sp)
   11cd0:	05010413          	addi	s0,sp,80
   11cd4:	faa42e23          	sw	a0,-68(s0)
D:\CreateIC\01_CPIPC\riscv\RISCV_ENC_20220421\Firmware_true\app_prj\app_demo\Debug/../src/Bsp/Driver/hme_timer.c:107
	assert_param(NULL != pstTimerObj);
   11cd8:	fbc42783          	lw	a5,-68(s0)
   11cdc:	00079a63          	bnez	a5,11cf0 <MachineTimerCmpAdjuct+0x4c>
D:\CreateIC\01_CPIPC\riscv\RISCV_ENC_20220421\Firmware_true\app_prj\app_demo\Debug/../src/Bsp/Driver/hme_timer.c:107 (discriminator 1)
   11ce0:	06b00593          	li	a1,107
   11ce4:	000157b7          	lui	a5,0x15
   11ce8:	10078513          	addi	a0,a5,256 # 15100 <__init_array_end+0x94>
   11cec:	694010ef          	jal	ra,13380 <assert_failed>
D:\CreateIC\01_CPIPC\riscv\RISCV_ENC_20220421\Firmware_true\app_prj\app_demo\Debug/../src/Bsp/Driver/hme_timer.c:108
	assert_param(NULL != pstTimerObj->pstCtrller);
   11cf0:	fbc42783          	lw	a5,-68(s0)
   11cf4:	0147a783          	lw	a5,20(a5)
   11cf8:	00079a63          	bnez	a5,11d0c <MachineTimerCmpAdjuct+0x68>
D:\CreateIC\01_CPIPC\riscv\RISCV_ENC_20220421\Firmware_true\app_prj\app_demo\Debug/../src/Bsp/Driver/hme_timer.c:108 (discriminator 1)
   11cfc:	06c00593          	li	a1,108
   11d00:	000157b7          	lui	a5,0x15
   11d04:	10078513          	addi	a0,a5,256 # 15100 <__init_array_end+0x94>
   11d08:	678010ef          	jal	ra,13380 <assert_failed>
D:\CreateIC\01_CPIPC\riscv\RISCV_ENC_20220421\Firmware_true\app_prj\app_demo\Debug/../src/Bsp/Driver/hme_timer.c:110

	uint32_t ulCurTimerL = 0;
   11d0c:	fc042623          	sw	zero,-52(s0)
D:\CreateIC\01_CPIPC\riscv\RISCV_ENC_20220421\Firmware_true\app_prj\app_demo\Debug/../src/Bsp/Driver/hme_timer.c:111
	uint32_t ulCurTimerH = 0;
   11d10:	fc042423          	sw	zero,-56(s0)
D:\CreateIC\01_CPIPC\riscv\RISCV_ENC_20220421\Firmware_true\app_prj\app_demo\Debug/../src/Bsp/Driver/hme_timer.c:112
	uint64_t ulCurTimer = 0;
   11d14:	00000793          	li	a5,0
   11d18:	00000813          	li	a6,0
   11d1c:	fcf42023          	sw	a5,-64(s0)
   11d20:	fd042223          	sw	a6,-60(s0)
D:\CreateIC\01_CPIPC\riscv\RISCV_ENC_20220421\Firmware_true\app_prj\app_demo\Debug/../src/Bsp/Driver/hme_timer.c:114

    ulCurTimerL = MachineTimerCtrllerCurTimeLGet(pstTimerObj->pstCtrller);
   11d24:	fbc42783          	lw	a5,-68(s0)
   11d28:	0147a783          	lw	a5,20(a5)
   11d2c:	00078513          	mv	a0,a5
   11d30:	0d0000ef          	jal	ra,11e00 <MachineTimerCtrllerCurTimeLGet>
   11d34:	fca42623          	sw	a0,-52(s0)
D:\CreateIC\01_CPIPC\riscv\RISCV_ENC_20220421\Firmware_true\app_prj\app_demo\Debug/../src/Bsp/Driver/hme_timer.c:115
    ulCurTimerH = MachineTimerCtrllerCurTimeHGet(pstTimerObj->pstCtrller);
   11d38:	fbc42783          	lw	a5,-68(s0)
   11d3c:	0147a783          	lw	a5,20(a5)
   11d40:	00078513          	mv	a0,a5
   11d44:	104000ef          	jal	ra,11e48 <MachineTimerCtrllerCurTimeHGet>
   11d48:	fca42423          	sw	a0,-56(s0)
D:\CreateIC\01_CPIPC\riscv\RISCV_ENC_20220421\Firmware_true\app_prj\app_demo\Debug/../src/Bsp/Driver/hme_timer.c:116
    ulCurTimer = (((uint64_t)ulCurTimerH << 32) | ulCurTimerL);
   11d4c:	fc842783          	lw	a5,-56(s0)
   11d50:	00078c13          	mv	s8,a5
   11d54:	00000c93          	li	s9,0
   11d58:	000c1993          	slli	s3,s8,0x0
   11d5c:	00000913          	li	s2,0
   11d60:	fcc42783          	lw	a5,-52(s0)
   11d64:	00078b13          	mv	s6,a5
   11d68:	00000b93          	li	s7,0
   11d6c:	016967b3          	or	a5,s2,s6
   11d70:	fcf42023          	sw	a5,-64(s0)
   11d74:	0179e7b3          	or	a5,s3,s7
   11d78:	fcf42223          	sw	a5,-60(s0)
D:\CreateIC\01_CPIPC\riscv\RISCV_ENC_20220421\Firmware_true\app_prj\app_demo\Debug/../src/Bsp/Driver/hme_timer.c:117
    ulCurTimer = ulCurTimer + pstTimerObj->ulIntrPeriod;
   11d7c:	fbc42783          	lw	a5,-68(s0)
   11d80:	0047a783          	lw	a5,4(a5)
   11d84:	00078a13          	mv	s4,a5
   11d88:	00000a93          	li	s5,0
   11d8c:	fc042683          	lw	a3,-64(s0)
   11d90:	fc442703          	lw	a4,-60(s0)
   11d94:	014687b3          	add	a5,a3,s4
   11d98:	00078613          	mv	a2,a5
   11d9c:	00d63633          	sltu	a2,a2,a3
   11da0:	01570833          	add	a6,a4,s5
   11da4:	01060733          	add	a4,a2,a6
   11da8:	00070813          	mv	a6,a4
   11dac:	fcf42023          	sw	a5,-64(s0)
   11db0:	fd042223          	sw	a6,-60(s0)
D:\CreateIC\01_CPIPC\riscv\RISCV_ENC_20220421\Firmware_true\app_prj\app_demo\Debug/../src/Bsp/Driver/hme_timer.c:118
    MachineTimerCtrllerCmpSet(pstTimerObj->pstCtrller, ulCurTimer);
   11db4:	fbc42783          	lw	a5,-68(s0)
   11db8:	0147a783          	lw	a5,20(a5)
   11dbc:	fc042583          	lw	a1,-64(s0)
   11dc0:	fc442603          	lw	a2,-60(s0)
   11dc4:	00078513          	mv	a0,a5
   11dc8:	0c8000ef          	jal	ra,11e90 <MachineTimerCtrllerCmpSet>
D:\CreateIC\01_CPIPC\riscv\RISCV_ENC_20220421\Firmware_true\app_prj\app_demo\Debug/../src/Bsp/Driver/hme_timer.c:119
}
   11dcc:	00000013          	nop
   11dd0:	04c12083          	lw	ra,76(sp)
   11dd4:	04812403          	lw	s0,72(sp)
   11dd8:	04412903          	lw	s2,68(sp)
   11ddc:	04012983          	lw	s3,64(sp)
   11de0:	03c12a03          	lw	s4,60(sp)
   11de4:	03812a83          	lw	s5,56(sp)
   11de8:	03412b03          	lw	s6,52(sp)
   11dec:	03012b83          	lw	s7,48(sp)
   11df0:	02c12c03          	lw	s8,44(sp)
   11df4:	02812c83          	lw	s9,40(sp)
   11df8:	05010113          	addi	sp,sp,80
   11dfc:	00008067          	ret

00011e00 <MachineTimerCtrllerCurTimeLGet>:
MachineTimerCtrllerCurTimeLGet():
D:\CreateIC\01_CPIPC\riscv\RISCV_ENC_20220421\Firmware_true\app_prj\app_demo\Debug/../src/Bsp/Driver/hme_timer.c:127
 * @brief  MachineTimer控制器当前计数值低位获取
 * @param  ptrTimerCtrller：Timer控制器
 * @retval uint32_t：返回低位计数值
*****************************************************************/
uint32_t MachineTimerCtrllerCurTimeLGet(PST_MACH_TIME_RegDef ptrTimerCtrller)
{
   11e00:	fe010113          	addi	sp,sp,-32
   11e04:	00112e23          	sw	ra,28(sp)
   11e08:	00812c23          	sw	s0,24(sp)
   11e0c:	02010413          	addi	s0,sp,32
   11e10:	fea42623          	sw	a0,-20(s0)
D:\CreateIC\01_CPIPC\riscv\RISCV_ENC_20220421\Firmware_true\app_prj\app_demo\Debug/../src/Bsp/Driver/hme_timer.c:128
	assert_param(NULL != ptrTimerCtrller);
   11e14:	fec42783          	lw	a5,-20(s0)
   11e18:	00079a63          	bnez	a5,11e2c <MachineTimerCtrllerCurTimeLGet+0x2c>
D:\CreateIC\01_CPIPC\riscv\RISCV_ENC_20220421\Firmware_true\app_prj\app_demo\Debug/../src/Bsp/Driver/hme_timer.c:128 (discriminator 1)
   11e1c:	08000593          	li	a1,128
   11e20:	000157b7          	lui	a5,0x15
   11e24:	10078513          	addi	a0,a5,256 # 15100 <__init_array_end+0x94>
   11e28:	558010ef          	jal	ra,13380 <assert_failed>
D:\CreateIC\01_CPIPC\riscv\RISCV_ENC_20220421\Firmware_true\app_prj\app_demo\Debug/../src/Bsp/Driver/hme_timer.c:129
	return ptrTimerCtrller->CUR_CNTL;
   11e2c:	fec42783          	lw	a5,-20(s0)
   11e30:	0007a783          	lw	a5,0(a5)
D:\CreateIC\01_CPIPC\riscv\RISCV_ENC_20220421\Firmware_true\app_prj\app_demo\Debug/../src/Bsp/Driver/hme_timer.c:130
}
   11e34:	00078513          	mv	a0,a5
   11e38:	01c12083          	lw	ra,28(sp)
   11e3c:	01812403          	lw	s0,24(sp)
   11e40:	02010113          	addi	sp,sp,32
   11e44:	00008067          	ret

00011e48 <MachineTimerCtrllerCurTimeHGet>:
MachineTimerCtrllerCurTimeHGet():
D:\CreateIC\01_CPIPC\riscv\RISCV_ENC_20220421\Firmware_true\app_prj\app_demo\Debug/../src/Bsp/Driver/hme_timer.c:138
 * @brief  MachineTimer控制器当前计数值高位获取
 * @param  ptrTimerCtrller：Timer控制器
 * @retval uint32_t：返回高位计数值
*****************************************************************/
uint32_t MachineTimerCtrllerCurTimeHGet(PST_MACH_TIME_RegDef ptrTimerCtrller)
{
   11e48:	fe010113          	addi	sp,sp,-32
   11e4c:	00112e23          	sw	ra,28(sp)
   11e50:	00812c23          	sw	s0,24(sp)
   11e54:	02010413          	addi	s0,sp,32
   11e58:	fea42623          	sw	a0,-20(s0)
D:\CreateIC\01_CPIPC\riscv\RISCV_ENC_20220421\Firmware_true\app_prj\app_demo\Debug/../src/Bsp/Driver/hme_timer.c:139
	assert_param(NULL != ptrTimerCtrller);
   11e5c:	fec42783          	lw	a5,-20(s0)
   11e60:	00079a63          	bnez	a5,11e74 <MachineTimerCtrllerCurTimeHGet+0x2c>
D:\CreateIC\01_CPIPC\riscv\RISCV_ENC_20220421\Firmware_true\app_prj\app_demo\Debug/../src/Bsp/Driver/hme_timer.c:139 (discriminator 1)
   11e64:	08b00593          	li	a1,139
   11e68:	000157b7          	lui	a5,0x15
   11e6c:	10078513          	addi	a0,a5,256 # 15100 <__init_array_end+0x94>
   11e70:	510010ef          	jal	ra,13380 <assert_failed>
D:\CreateIC\01_CPIPC\riscv\RISCV_ENC_20220421\Firmware_true\app_prj\app_demo\Debug/../src/Bsp/Driver/hme_timer.c:140
	return ptrTimerCtrller->CUR_CNTH;
   11e74:	fec42783          	lw	a5,-20(s0)
   11e78:	0047a783          	lw	a5,4(a5)
D:\CreateIC\01_CPIPC\riscv\RISCV_ENC_20220421\Firmware_true\app_prj\app_demo\Debug/../src/Bsp/Driver/hme_timer.c:141
}
   11e7c:	00078513          	mv	a0,a5
   11e80:	01c12083          	lw	ra,28(sp)
   11e84:	01812403          	lw	s0,24(sp)
   11e88:	02010113          	addi	sp,sp,32
   11e8c:	00008067          	ret

00011e90 <MachineTimerCtrllerCmpSet>:
MachineTimerCtrllerCmpSet():
D:\CreateIC\01_CPIPC\riscv\RISCV_ENC_20220421\Firmware_true\app_prj\app_demo\Debug/../src/Bsp/Driver/hme_timer.c:149
 * @brief  MachineTimer控制器比较寄存器设置
 * @param  ptrTimerCtrller：Timer控制器， ullComVal:比较值的配置参数
 * @retval 无
*****************************************************************/
void MachineTimerCtrllerCmpSet(PST_MACH_TIME_RegDef ptrTimerCtrller, uint64_t ullComVal)
{
   11e90:	fd010113          	addi	sp,sp,-48
   11e94:	02112623          	sw	ra,44(sp)
   11e98:	02812423          	sw	s0,40(sp)
   11e9c:	03212223          	sw	s2,36(sp)
   11ea0:	03312023          	sw	s3,32(sp)
   11ea4:	03010413          	addi	s0,sp,48
   11ea8:	fca42e23          	sw	a0,-36(s0)
   11eac:	fcb42823          	sw	a1,-48(s0)
   11eb0:	fcc42a23          	sw	a2,-44(s0)
D:\CreateIC\01_CPIPC\riscv\RISCV_ENC_20220421\Firmware_true\app_prj\app_demo\Debug/../src/Bsp/Driver/hme_timer.c:150
	assert_param(NULL != ptrTimerCtrller);
   11eb4:	fdc42783          	lw	a5,-36(s0)
   11eb8:	00079a63          	bnez	a5,11ecc <MachineTimerCtrllerCmpSet+0x3c>
D:\CreateIC\01_CPIPC\riscv\RISCV_ENC_20220421\Firmware_true\app_prj\app_demo\Debug/../src/Bsp/Driver/hme_timer.c:150 (discriminator 1)
   11ebc:	09600593          	li	a1,150
   11ec0:	000157b7          	lui	a5,0x15
   11ec4:	10078513          	addi	a0,a5,256 # 15100 <__init_array_end+0x94>
   11ec8:	4b8010ef          	jal	ra,13380 <assert_failed>
D:\CreateIC\01_CPIPC\riscv\RISCV_ENC_20220421\Firmware_true\app_prj\app_demo\Debug/../src/Bsp/Driver/hme_timer.c:151
	uint32_t ulCurTimerL = ullComVal & 0xFFFFFFFF;
   11ecc:	fd042783          	lw	a5,-48(s0)
   11ed0:	fef42623          	sw	a5,-20(s0)
D:\CreateIC\01_CPIPC\riscv\RISCV_ENC_20220421\Firmware_true\app_prj\app_demo\Debug/../src/Bsp/Driver/hme_timer.c:152
	uint32_t ulCurTimerH = (ullComVal >> 32) & 0xFFFFFFFF;
   11ed4:	fd442783          	lw	a5,-44(s0)
   11ed8:	0007d913          	srli	s2,a5,0x0
   11edc:	00000993          	li	s3,0
   11ee0:	ff242423          	sw	s2,-24(s0)
D:\CreateIC\01_CPIPC\riscv\RISCV_ENC_20220421\Firmware_true\app_prj\app_demo\Debug/../src/Bsp/Driver/hme_timer.c:154

	ptrTimerCtrller->CMPH = ulCurTimerH;
   11ee4:	fdc42783          	lw	a5,-36(s0)
   11ee8:	fe842703          	lw	a4,-24(s0)
   11eec:	00e7a623          	sw	a4,12(a5)
D:\CreateIC\01_CPIPC\riscv\RISCV_ENC_20220421\Firmware_true\app_prj\app_demo\Debug/../src/Bsp/Driver/hme_timer.c:155
	ptrTimerCtrller->CMPL = ulCurTimerL;
   11ef0:	fdc42783          	lw	a5,-36(s0)
   11ef4:	fec42703          	lw	a4,-20(s0)
   11ef8:	00e7a423          	sw	a4,8(a5)
D:\CreateIC\01_CPIPC\riscv\RISCV_ENC_20220421\Firmware_true\app_prj\app_demo\Debug/../src/Bsp/Driver/hme_timer.c:156
}
   11efc:	00000013          	nop
   11f00:	02c12083          	lw	ra,44(sp)
   11f04:	02812403          	lw	s0,40(sp)
   11f08:	02412903          	lw	s2,36(sp)
   11f0c:	02012983          	lw	s3,32(sp)
   11f10:	03010113          	addi	sp,sp,48
   11f14:	00008067          	ret

00011f18 <PlicMachineTimerHandle>:
PlicMachineTimerHandle():
D:\CreateIC\01_CPIPC\riscv\RISCV_ENC_20220421\Firmware_true\app_prj\app_demo\Debug/../src/Bsp/Driver/hme_timer.c:164
 * @brief  MachineTimer控制器PLIC中断函数接口
 * @param  ptrBackCall：回调参数
 * @retval 无
*****************************************************************/
void PlicMachineTimerHandle(void * ptrBackCall)
{
   11f18:	fd010113          	addi	sp,sp,-48
   11f1c:	02112623          	sw	ra,44(sp)
   11f20:	02812423          	sw	s0,40(sp)
   11f24:	03010413          	addi	s0,sp,48
   11f28:	fca42e23          	sw	a0,-36(s0)
D:\CreateIC\01_CPIPC\riscv\RISCV_ENC_20220421\Firmware_true\app_prj\app_demo\Debug/../src/Bsp/Driver/hme_timer.c:165
	PST_TIMER_ATTR pstTimerObj = NULL;
   11f2c:	fe042623          	sw	zero,-20(s0)
D:\CreateIC\01_CPIPC\riscv\RISCV_ENC_20220421\Firmware_true\app_prj\app_demo\Debug/../src/Bsp/Driver/hme_timer.c:166
	if (NULL != ptrBackCall)
   11f30:	fdc42783          	lw	a5,-36(s0)
   11f34:	00078a63          	beqz	a5,11f48 <PlicMachineTimerHandle+0x30>
D:\CreateIC\01_CPIPC\riscv\RISCV_ENC_20220421\Firmware_true\app_prj\app_demo\Debug/../src/Bsp/Driver/hme_timer.c:168
	{
		pstTimerObj = (PST_TIMER_ATTR)ptrBackCall;
   11f38:	fdc42783          	lw	a5,-36(s0)
   11f3c:	fef42623          	sw	a5,-20(s0)
D:\CreateIC\01_CPIPC\riscv\RISCV_ENC_20220421\Firmware_true\app_prj\app_demo\Debug/../src/Bsp/Driver/hme_timer.c:169
		MachineTimerCmpAdjuct(pstTimerObj);
   11f40:	fec42503          	lw	a0,-20(s0)
   11f44:	d61ff0ef          	jal	ra,11ca4 <MachineTimerCmpAdjuct>
D:\CreateIC\01_CPIPC\riscv\RISCV_ENC_20220421\Firmware_true\app_prj\app_demo\Debug/../src/Bsp/Driver/hme_timer.c:171
	}
}
   11f48:	00000013          	nop
   11f4c:	02c12083          	lw	ra,44(sp)
   11f50:	02812403          	lw	s0,40(sp)
   11f54:	03010113          	addi	sp,sp,48
   11f58:	00008067          	ret

00011f5c <UartStructDeInit>:
UartStructDeInit():
D:\CreateIC\01_CPIPC\riscv\RISCV_ENC_20220421\Firmware_true\app_prj\app_demo\Debug/../src/Bsp/Driver/hme_uart.c:33
 * @brief  UART对象结构体参数默认初始化
 * @param  pstUartObj：UART设备对象
 * @retval 无
*****************************************************************/
void UartStructDeInit(PST_UART_ATTR pstUartObj)
{
   11f5c:	fe010113          	addi	sp,sp,-32
   11f60:	00112e23          	sw	ra,28(sp)
   11f64:	00812c23          	sw	s0,24(sp)
   11f68:	02010413          	addi	s0,sp,32
   11f6c:	fea42623          	sw	a0,-20(s0)
D:\CreateIC\01_CPIPC\riscv\RISCV_ENC_20220421\Firmware_true\app_prj\app_demo\Debug/../src/Bsp/Driver/hme_uart.c:34
	assert_param(NULL != pstUartObj);
   11f70:	fec42783          	lw	a5,-20(s0)
   11f74:	00079a63          	bnez	a5,11f88 <UartStructDeInit+0x2c>
D:\CreateIC\01_CPIPC\riscv\RISCV_ENC_20220421\Firmware_true\app_prj\app_demo\Debug/../src/Bsp/Driver/hme_uart.c:34 (discriminator 1)
   11f78:	02200593          	li	a1,34
   11f7c:	000157b7          	lui	a5,0x15
   11f80:	12078513          	addi	a0,a5,288 # 15120 <__init_array_end+0xb4>
   11f84:	3fc010ef          	jal	ra,13380 <assert_failed>
D:\CreateIC\01_CPIPC\riscv\RISCV_ENC_20220421\Firmware_true\app_prj\app_demo\Debug/../src/Bsp/Driver/hme_uart.c:36

	pstUartObj->usDevId = DEF_UART_DEV_ID;
   11f88:	fec42783          	lw	a5,-20(s0)
   11f8c:	00100713          	li	a4,1
   11f90:	00e79023          	sh	a4,0(a5)
D:\CreateIC\01_CPIPC\riscv\RISCV_ENC_20220421\Firmware_true\app_prj\app_demo\Debug/../src/Bsp/Driver/hme_uart.c:37
	pstUartObj->pucSendBuf = NULL;
   11f94:	fec42783          	lw	a5,-20(s0)
   11f98:	0007a223          	sw	zero,4(a5)
D:\CreateIC\01_CPIPC\riscv\RISCV_ENC_20220421\Firmware_true\app_prj\app_demo\Debug/../src/Bsp/Driver/hme_uart.c:38
	pstUartObj->pucRecvBuf = NULL;
   11f9c:	fec42783          	lw	a5,-20(s0)
   11fa0:	0007a423          	sw	zero,8(a5)
D:\CreateIC\01_CPIPC\riscv\RISCV_ENC_20220421\Firmware_true\app_prj\app_demo\Debug/../src/Bsp/Driver/hme_uart.c:39
	pstUartObj->usSendDataSize = 0;
   11fa4:	fec42783          	lw	a5,-20(s0)
   11fa8:	00079623          	sh	zero,12(a5)
D:\CreateIC\01_CPIPC\riscv\RISCV_ENC_20220421\Firmware_true\app_prj\app_demo\Debug/../src/Bsp/Driver/hme_uart.c:40
	pstUartObj->usRecvDataSize = 0;
   11fac:	fec42783          	lw	a5,-20(s0)
   11fb0:	00079723          	sh	zero,14(a5)
D:\CreateIC\01_CPIPC\riscv\RISCV_ENC_20220421\Firmware_true\app_prj\app_demo\Debug/../src/Bsp/Driver/hme_uart.c:41
	pstUartObj->usSendBytesCnt = 0;
   11fb4:	fec42783          	lw	a5,-20(s0)
   11fb8:	00079823          	sh	zero,16(a5)
D:\CreateIC\01_CPIPC\riscv\RISCV_ENC_20220421\Firmware_true\app_prj\app_demo\Debug/../src/Bsp/Driver/hme_uart.c:42
	pstUartObj->usRecvBytesCnt = 0;
   11fbc:	fec42783          	lw	a5,-20(s0)
   11fc0:	00079923          	sh	zero,18(a5)
D:\CreateIC\01_CPIPC\riscv\RISCV_ENC_20220421\Firmware_true\app_prj\app_demo\Debug/../src/Bsp/Driver/hme_uart.c:43
	pstUartObj->stCfgParam.ucFifoCtrl = UART_FIFO_CFG_EN | UART_FIFO_CFG_RRST | UART_FIFO_CFG_TRST;
   11fc4:	fec42783          	lw	a5,-20(s0)
   11fc8:	00700713          	li	a4,7
   11fcc:	00e78c23          	sb	a4,24(a5)
D:\CreateIC\01_CPIPC\riscv\RISCV_ENC_20220421\Firmware_true\app_prj\app_demo\Debug/../src/Bsp/Driver/hme_uart.c:44
	pstUartObj->stCfgParam.ucIntrCtrl = UART_INTR_ALL_DIS;
   11fd0:	fec42783          	lw	a5,-20(s0)
   11fd4:	00078b23          	sb	zero,22(a5)
D:\CreateIC\01_CPIPC\riscv\RISCV_ENC_20220421\Firmware_true\app_prj\app_demo\Debug/../src/Bsp/Driver/hme_uart.c:45
	pstUartObj->stCfgParam.ucLineCtrl = UART_LINE_CFG_WLS_8BIT;
   11fd8:	fec42783          	lw	a5,-20(s0)
   11fdc:	00300713          	li	a4,3
   11fe0:	00e78ca3          	sb	a4,25(a5)
D:\CreateIC\01_CPIPC\riscv\RISCV_ENC_20220421\Firmware_true\app_prj\app_demo\Debug/../src/Bsp/Driver/hme_uart.c:46
	pstUartObj->stCfgParam.ucModemCtrl = UART_MODEM_CFG_DEFAULT;
   11fe4:	fec42783          	lw	a5,-20(s0)
   11fe8:	00078d23          	sb	zero,26(a5)
D:\CreateIC\01_CPIPC\riscv\RISCV_ENC_20220421\Firmware_true\app_prj\app_demo\Debug/../src/Bsp/Driver/hme_uart.c:47
	pstUartObj->stCfgParam.ucOscCtrl = UART_OSC_DEFAULT_VAL;
   11fec:	fec42783          	lw	a5,-20(s0)
   11ff0:	01000713          	li	a4,16
   11ff4:	00e78ba3          	sb	a4,23(a5)
D:\CreateIC\01_CPIPC\riscv\RISCV_ENC_20220421\Firmware_true\app_prj\app_demo\Debug/../src/Bsp/Driver/hme_uart.c:48
	pstUartObj->stCfgParam.ucScratchCtrl = 0;
   11ff8:	fec42783          	lw	a5,-20(s0)
   11ffc:	00078da3          	sb	zero,27(a5)
D:\CreateIC\01_CPIPC\riscv\RISCV_ENC_20220421\Firmware_true\app_prj\app_demo\Debug/../src/Bsp/Driver/hme_uart.c:49
	pstUartObj->stCfgParam.usBaudDiv = BAUD_RATE(115200);
   12000:	fec42783          	lw	a5,-20(s0)
   12004:	02b00713          	li	a4,43
   12008:	00e79a23          	sh	a4,20(a5)
D:\CreateIC\01_CPIPC\riscv\RISCV_ENC_20220421\Firmware_true\app_prj\app_demo\Debug/../src/Bsp/Driver/hme_uart.c:51

	pstUartObj->stPlicCfgParam.ucIntrEnFlage = DISABLE;
   1200c:	fec42783          	lw	a5,-20(s0)
   12010:	00078e23          	sb	zero,28(a5)
D:\CreateIC\01_CPIPC\riscv\RISCV_ENC_20220421\Firmware_true\app_prj\app_demo\Debug/../src/Bsp/Driver/hme_uart.c:52
	pstUartObj->stPlicCfgParam.ucPriority = EN_PRIORITY_3;
   12014:	fec42783          	lw	a5,-20(s0)
   12018:	00300713          	li	a4,3
   1201c:	00e78ea3          	sb	a4,29(a5)
D:\CreateIC\01_CPIPC\riscv\RISCV_ENC_20220421\Firmware_true\app_prj\app_demo\Debug/../src/Bsp/Driver/hme_uart.c:54

	pstUartObj->pstCtrller = DEV_UART0;
   12020:	fec42783          	lw	a5,-20(s0)
   12024:	f8003737          	lui	a4,0xf8003
   12028:	02e7a023          	sw	a4,32(a5)
D:\CreateIC\01_CPIPC\riscv\RISCV_ENC_20220421\Firmware_true\app_prj\app_demo\Debug/../src/Bsp/Driver/hme_uart.c:55
}
   1202c:	00000013          	nop
   12030:	01c12083          	lw	ra,28(sp)
   12034:	01812403          	lw	s0,24(sp)
   12038:	02010113          	addi	sp,sp,32
   1203c:	00008067          	ret

00012040 <UartObjConfigInit>:
UartObjConfigInit():
D:\CreateIC\01_CPIPC\riscv\RISCV_ENC_20220421\Firmware_true\app_prj\app_demo\Debug/../src/Bsp/Driver/hme_uart.c:95
 * @brief  UART设备参数寄存器配置
 * @param  pstUartObj：UART设备对象
 * @retval 无
*****************************************************************/
void UartObjConfigInit(PST_UART_ATTR pstUartObj)
{
   12040:	fd010113          	addi	sp,sp,-48
   12044:	02112623          	sw	ra,44(sp)
   12048:	02812423          	sw	s0,40(sp)
   1204c:	03010413          	addi	s0,sp,48
   12050:	fca42e23          	sw	a0,-36(s0)
D:\CreateIC\01_CPIPC\riscv\RISCV_ENC_20220421\Firmware_true\app_prj\app_demo\Debug/../src/Bsp/Driver/hme_uart.c:96
	assert_param(NULL != pstUartObj);
   12054:	fdc42783          	lw	a5,-36(s0)
   12058:	00079a63          	bnez	a5,1206c <UartObjConfigInit+0x2c>
D:\CreateIC\01_CPIPC\riscv\RISCV_ENC_20220421\Firmware_true\app_prj\app_demo\Debug/../src/Bsp/Driver/hme_uart.c:96 (discriminator 1)
   1205c:	06000593          	li	a1,96
   12060:	000157b7          	lui	a5,0x15
   12064:	12078513          	addi	a0,a5,288 # 15120 <__init_array_end+0xb4>
   12068:	318010ef          	jal	ra,13380 <assert_failed>
D:\CreateIC\01_CPIPC\riscv\RISCV_ENC_20220421\Firmware_true\app_prj\app_demo\Debug/../src/Bsp/Driver/hme_uart.c:97
	assert_param(NULL != pstUartObj->pstCtrller);
   1206c:	fdc42783          	lw	a5,-36(s0)
   12070:	0207a783          	lw	a5,32(a5)
   12074:	00079a63          	bnez	a5,12088 <UartObjConfigInit+0x48>
D:\CreateIC\01_CPIPC\riscv\RISCV_ENC_20220421\Firmware_true\app_prj\app_demo\Debug/../src/Bsp/Driver/hme_uart.c:97 (discriminator 1)
   12078:	06100593          	li	a1,97
   1207c:	000157b7          	lui	a5,0x15
   12080:	12078513          	addi	a0,a5,288 # 15120 <__init_array_end+0xb4>
   12084:	2fc010ef          	jal	ra,13380 <assert_failed>
D:\CreateIC\01_CPIPC\riscv\RISCV_ENC_20220421\Firmware_true\app_prj\app_demo\Debug/../src/Bsp/Driver/hme_uart.c:99

	uint32_t ulUartEnVal= 0;
   12088:	fe042623          	sw	zero,-20(s0)
D:\CreateIC\01_CPIPC\riscv\RISCV_ENC_20220421\Firmware_true\app_prj\app_demo\Debug/../src/Bsp/Driver/hme_uart.c:100
	ST_PLIC_REG_PARAM stUartRegParam = {0};
   1208c:	fe042023          	sw	zero,-32(s0)
   12090:	fe042223          	sw	zero,-28(s0)
   12094:	fe042423          	sw	zero,-24(s0)
D:\CreateIC\01_CPIPC\riscv\RISCV_ENC_20220421\Firmware_true\app_prj\app_demo\Debug/../src/Bsp/Driver/hme_uart.c:103

	//PLIC中断使能和注册
	ulUartEnVal = DevIntrEnTableGet(pstUartObj->usDevId);
   12098:	fdc42783          	lw	a5,-36(s0)
   1209c:	0007d783          	lhu	a5,0(a5)
   120a0:	00078513          	mv	a0,a5
   120a4:	a78ff0ef          	jal	ra,1131c <DevIntrEnTableGet>
   120a8:	fea42623          	sw	a0,-20(s0)
D:\CreateIC\01_CPIPC\riscv\RISCV_ENC_20220421\Firmware_true\app_prj\app_demo\Debug/../src/Bsp/Driver/hme_uart.c:104
	stUartRegParam.usIntrId = DevIntrIdTableGet(pstUartObj->usDevId);
   120ac:	fdc42783          	lw	a5,-36(s0)
   120b0:	0007d783          	lhu	a5,0(a5)
   120b4:	00078513          	mv	a0,a5
   120b8:	88cff0ef          	jal	ra,11144 <DevIntrIdTableGet>
   120bc:	00050793          	mv	a5,a0
   120c0:	fef41023          	sh	a5,-32(s0)
D:\CreateIC\01_CPIPC\riscv\RISCV_ENC_20220421\Firmware_true\app_prj\app_demo\Debug/../src/Bsp/Driver/hme_uart.c:105
	stUartRegParam.IntrHander = PlicUartHandle;
   120c4:	000137b7          	lui	a5,0x13
   120c8:	81c78793          	addi	a5,a5,-2020 # 1281c <PlicUartHandle>
   120cc:	fef42223          	sw	a5,-28(s0)
D:\CreateIC\01_CPIPC\riscv\RISCV_ENC_20220421\Firmware_true\app_prj\app_demo\Debug/../src/Bsp/Driver/hme_uart.c:106
	stUartRegParam.ptrBackCall = pstUartObj;
   120d0:	fdc42783          	lw	a5,-36(s0)
   120d4:	fef42423          	sw	a5,-24(s0)
D:\CreateIC\01_CPIPC\riscv\RISCV_ENC_20220421\Firmware_true\app_prj\app_demo\Debug/../src/Bsp/Driver/hme_uart.c:107
	if (pstUartObj->stPlicCfgParam.ucIntrEnFlage)
   120d8:	fdc42783          	lw	a5,-36(s0)
   120dc:	01c7c783          	lbu	a5,28(a5)
   120e0:	04078063          	beqz	a5,12120 <UartObjConfigInit+0xe0>
D:\CreateIC\01_CPIPC\riscv\RISCV_ENC_20220421\Firmware_true\app_prj\app_demo\Debug/../src/Bsp/Driver/hme_uart.c:110
	{
		//intr Priority set
		IntrPrioritySet(pstUartObj->usDevId, pstUartObj->stPlicCfgParam.ucPriority);
   120e4:	fdc42783          	lw	a5,-36(s0)
   120e8:	0007d703          	lhu	a4,0(a5)
   120ec:	fdc42783          	lw	a5,-36(s0)
   120f0:	01d7c783          	lbu	a5,29(a5)
   120f4:	00078593          	mv	a1,a5
   120f8:	00070513          	mv	a0,a4
   120fc:	b0cff0ef          	jal	ra,11408 <IntrPrioritySet>
D:\CreateIC\01_CPIPC\riscv\RISCV_ENC_20220421\Firmware_true\app_prj\app_demo\Debug/../src/Bsp/Driver/hme_uart.c:112
        //intr handle register
		PlicIntrHandleRegister(&stUartRegParam, pstUartObj->usDevId);
   12100:	fdc42783          	lw	a5,-36(s0)
   12104:	0007d703          	lhu	a4,0(a5)
   12108:	fe040793          	addi	a5,s0,-32
   1210c:	00070593          	mv	a1,a4
   12110:	00078513          	mv	a0,a5
   12114:	e54ff0ef          	jal	ra,11768 <PlicIntrHandleRegister>
D:\CreateIC\01_CPIPC\riscv\RISCV_ENC_20220421\Firmware_true\app_prj\app_demo\Debug/../src/Bsp/Driver/hme_uart.c:114
		//intr handle enable
		PlicEnableSet(ulUartEnVal);
   12118:	fec42503          	lw	a0,-20(s0)
   1211c:	d3cff0ef          	jal	ra,11658 <PlicEnableSet>
D:\CreateIC\01_CPIPC\riscv\RISCV_ENC_20220421\Firmware_true\app_prj\app_demo\Debug/../src/Bsp/Driver/hme_uart.c:118
	}

	//波特率配置
	UartBaudDivCfg(pstUartObj);
   12120:	fdc42503          	lw	a0,-36(s0)
   12124:	168000ef          	jal	ra,1228c <UartBaudDivCfg>
D:\CreateIC\01_CPIPC\riscv\RISCV_ENC_20220421\Firmware_true\app_prj\app_demo\Debug/../src/Bsp/Driver/hme_uart.c:120
	//FIFO配置
	UartFifoCfg(pstUartObj);
   12128:	fdc42503          	lw	a0,-36(s0)
   1212c:	28c000ef          	jal	ra,123b8 <UartFifoCfg>
D:\CreateIC\01_CPIPC\riscv\RISCV_ENC_20220421\Firmware_true\app_prj\app_demo\Debug/../src/Bsp/Driver/hme_uart.c:122
	//过采样配置
	UartOscCfg(pstUartObj);
   12130:	fdc42503          	lw	a0,-36(s0)
   12134:	300000ef          	jal	ra,12434 <UartOscCfg>
D:\CreateIC\01_CPIPC\riscv\RISCV_ENC_20220421\Firmware_true\app_prj\app_demo\Debug/../src/Bsp/Driver/hme_uart.c:124
	//调制器模式配置
	UartModemCtrlCfg(pstUartObj);
   12138:	fdc42503          	lw	a0,-36(s0)
   1213c:	3e8000ef          	jal	ra,12524 <UartModemCtrlCfg>
D:\CreateIC\01_CPIPC\riscv\RISCV_ENC_20220421\Firmware_true\app_prj\app_demo\Debug/../src/Bsp/Driver/hme_uart.c:125
	UartScratchCfg(pstUartObj);
   12140:	fdc42503          	lw	a0,-36(s0)
   12144:	4c4000ef          	jal	ra,12608 <UartScratchCfg>
D:\CreateIC\01_CPIPC\riscv\RISCV_ENC_20220421\Firmware_true\app_prj\app_demo\Debug/../src/Bsp/Driver/hme_uart.c:127
	//传输方式配置
	UartTranModeCfg(pstUartObj);
   12148:	fdc42503          	lw	a0,-36(s0)
   1214c:	1f0000ef          	jal	ra,1233c <UartTranModeCfg>
D:\CreateIC\01_CPIPC\riscv\RISCV_ENC_20220421\Firmware_true\app_prj\app_demo\Debug/../src/Bsp/Driver/hme_uart.c:129
	//串口中断配置
	UartIntrCfg(pstUartObj);
   12150:	fdc42503          	lw	a0,-36(s0)
   12154:	5d0000ef          	jal	ra,12724 <UartIntrCfg>
D:\CreateIC\01_CPIPC\riscv\RISCV_ENC_20220421\Firmware_true\app_prj\app_demo\Debug/../src/Bsp/Driver/hme_uart.c:130
}
   12158:	00000013          	nop
   1215c:	02c12083          	lw	ra,44(sp)
   12160:	02812403          	lw	s0,40(sp)
   12164:	03010113          	addi	sp,sp,48
   12168:	00008067          	ret

0001216c <UartDivAccessSet>:
UartDivAccessSet():
D:\CreateIC\01_CPIPC\riscv\RISCV_ENC_20220421\Firmware_true\app_prj\app_demo\Debug/../src/Bsp/Driver/hme_uart.c:139
 * @brief  UART设备分频参数访问使能
 * @param  pstUartObj：UART设备对象
 * @retval 无
*****************************************************************/
void UartDivAccessSet(PST_UART_ATTR pstUartObj)
{
   1216c:	fd010113          	addi	sp,sp,-48
   12170:	02112623          	sw	ra,44(sp)
   12174:	02812423          	sw	s0,40(sp)
   12178:	03010413          	addi	s0,sp,48
   1217c:	fca42e23          	sw	a0,-36(s0)
D:\CreateIC\01_CPIPC\riscv\RISCV_ENC_20220421\Firmware_true\app_prj\app_demo\Debug/../src/Bsp/Driver/hme_uart.c:140
	assert_param(NULL != pstUartObj);
   12180:	fdc42783          	lw	a5,-36(s0)
   12184:	00079a63          	bnez	a5,12198 <UartDivAccessSet+0x2c>
D:\CreateIC\01_CPIPC\riscv\RISCV_ENC_20220421\Firmware_true\app_prj\app_demo\Debug/../src/Bsp/Driver/hme_uart.c:140 (discriminator 1)
   12188:	08c00593          	li	a1,140
   1218c:	000157b7          	lui	a5,0x15
   12190:	12078513          	addi	a0,a5,288 # 15120 <__init_array_end+0xb4>
   12194:	1ec010ef          	jal	ra,13380 <assert_failed>
D:\CreateIC\01_CPIPC\riscv\RISCV_ENC_20220421\Firmware_true\app_prj\app_demo\Debug/../src/Bsp/Driver/hme_uart.c:141
	assert_param(NULL != pstUartObj->pstCtrller);
   12198:	fdc42783          	lw	a5,-36(s0)
   1219c:	0207a783          	lw	a5,32(a5)
   121a0:	00079a63          	bnez	a5,121b4 <UartDivAccessSet+0x48>
D:\CreateIC\01_CPIPC\riscv\RISCV_ENC_20220421\Firmware_true\app_prj\app_demo\Debug/../src/Bsp/Driver/hme_uart.c:141 (discriminator 1)
   121a4:	08d00593          	li	a1,141
   121a8:	000157b7          	lui	a5,0x15
   121ac:	12078513          	addi	a0,a5,288 # 15120 <__init_array_end+0xb4>
   121b0:	1d0010ef          	jal	ra,13380 <assert_failed>
D:\CreateIC\01_CPIPC\riscv\RISCV_ENC_20220421\Firmware_true\app_prj\app_demo\Debug/../src/Bsp/Driver/hme_uart.c:143

	PST_UART_RegDef pstUartCtrller = pstUartObj->pstCtrller;
   121b4:	fdc42783          	lw	a5,-36(s0)
   121b8:	0207a783          	lw	a5,32(a5)
   121bc:	fef42623          	sw	a5,-20(s0)
D:\CreateIC\01_CPIPC\riscv\RISCV_ENC_20220421\Firmware_true\app_prj\app_demo\Debug/../src/Bsp/Driver/hme_uart.c:144
	uint8_t  ucLineState = 0;
   121c0:	fe0405a3          	sb	zero,-21(s0)
D:\CreateIC\01_CPIPC\riscv\RISCV_ENC_20220421\Firmware_true\app_prj\app_demo\Debug/../src/Bsp/Driver/hme_uart.c:145
	ucLineState = pstUartCtrller->LCR;
   121c4:	fec42783          	lw	a5,-20(s0)
   121c8:	02c7a783          	lw	a5,44(a5)
   121cc:	fef405a3          	sb	a5,-21(s0)
D:\CreateIC\01_CPIPC\riscv\RISCV_ENC_20220421\Firmware_true\app_prj\app_demo\Debug/../src/Bsp/Driver/hme_uart.c:146
	ucLineState = ucLineState | UART_LINE_CFG_DLAB;
   121d0:	feb44783          	lbu	a5,-21(s0)
   121d4:	f807e793          	ori	a5,a5,-128
   121d8:	fef405a3          	sb	a5,-21(s0)
D:\CreateIC\01_CPIPC\riscv\RISCV_ENC_20220421\Firmware_true\app_prj\app_demo\Debug/../src/Bsp/Driver/hme_uart.c:147
	pstUartCtrller->LCR = ucLineState;
   121dc:	feb44703          	lbu	a4,-21(s0)
   121e0:	fec42783          	lw	a5,-20(s0)
   121e4:	02e7a623          	sw	a4,44(a5)
D:\CreateIC\01_CPIPC\riscv\RISCV_ENC_20220421\Firmware_true\app_prj\app_demo\Debug/../src/Bsp/Driver/hme_uart.c:148
}
   121e8:	00000013          	nop
   121ec:	02c12083          	lw	ra,44(sp)
   121f0:	02812403          	lw	s0,40(sp)
   121f4:	03010113          	addi	sp,sp,48
   121f8:	00008067          	ret

000121fc <UartDivAccessClear>:
UartDivAccessClear():
D:\CreateIC\01_CPIPC\riscv\RISCV_ENC_20220421\Firmware_true\app_prj\app_demo\Debug/../src/Bsp/Driver/hme_uart.c:156
 * @brief  UART设备分频参数访问禁止
 * @param  pstUartObj：UART设备对象
 * @retval 无
*****************************************************************/
void UartDivAccessClear(PST_UART_ATTR pstUartObj)
{
   121fc:	fd010113          	addi	sp,sp,-48
   12200:	02112623          	sw	ra,44(sp)
   12204:	02812423          	sw	s0,40(sp)
   12208:	03010413          	addi	s0,sp,48
   1220c:	fca42e23          	sw	a0,-36(s0)
D:\CreateIC\01_CPIPC\riscv\RISCV_ENC_20220421\Firmware_true\app_prj\app_demo\Debug/../src/Bsp/Driver/hme_uart.c:157
	assert_param(NULL != pstUartObj);
   12210:	fdc42783          	lw	a5,-36(s0)
   12214:	00079a63          	bnez	a5,12228 <UartDivAccessClear+0x2c>
D:\CreateIC\01_CPIPC\riscv\RISCV_ENC_20220421\Firmware_true\app_prj\app_demo\Debug/../src/Bsp/Driver/hme_uart.c:157 (discriminator 1)
   12218:	09d00593          	li	a1,157
   1221c:	000157b7          	lui	a5,0x15
   12220:	12078513          	addi	a0,a5,288 # 15120 <__init_array_end+0xb4>
   12224:	15c010ef          	jal	ra,13380 <assert_failed>
D:\CreateIC\01_CPIPC\riscv\RISCV_ENC_20220421\Firmware_true\app_prj\app_demo\Debug/../src/Bsp/Driver/hme_uart.c:158
	assert_param(NULL != pstUartObj->pstCtrller);
   12228:	fdc42783          	lw	a5,-36(s0)
   1222c:	0207a783          	lw	a5,32(a5)
   12230:	00079a63          	bnez	a5,12244 <UartDivAccessClear+0x48>
D:\CreateIC\01_CPIPC\riscv\RISCV_ENC_20220421\Firmware_true\app_prj\app_demo\Debug/../src/Bsp/Driver/hme_uart.c:158 (discriminator 1)
   12234:	09e00593          	li	a1,158
   12238:	000157b7          	lui	a5,0x15
   1223c:	12078513          	addi	a0,a5,288 # 15120 <__init_array_end+0xb4>
   12240:	140010ef          	jal	ra,13380 <assert_failed>
D:\CreateIC\01_CPIPC\riscv\RISCV_ENC_20220421\Firmware_true\app_prj\app_demo\Debug/../src/Bsp/Driver/hme_uart.c:160

	PST_UART_RegDef pstUartCtrller = pstUartObj->pstCtrller;
   12244:	fdc42783          	lw	a5,-36(s0)
   12248:	0207a783          	lw	a5,32(a5)
   1224c:	fef42623          	sw	a5,-20(s0)
D:\CreateIC\01_CPIPC\riscv\RISCV_ENC_20220421\Firmware_true\app_prj\app_demo\Debug/../src/Bsp/Driver/hme_uart.c:161
	uint8_t  ucLineState = 0;
   12250:	fe0405a3          	sb	zero,-21(s0)
D:\CreateIC\01_CPIPC\riscv\RISCV_ENC_20220421\Firmware_true\app_prj\app_demo\Debug/../src/Bsp/Driver/hme_uart.c:162
	ucLineState = pstUartCtrller->LCR;
   12254:	fec42783          	lw	a5,-20(s0)
   12258:	02c7a783          	lw	a5,44(a5)
   1225c:	fef405a3          	sb	a5,-21(s0)
D:\CreateIC\01_CPIPC\riscv\RISCV_ENC_20220421\Firmware_true\app_prj\app_demo\Debug/../src/Bsp/Driver/hme_uart.c:163
	ucLineState = ucLineState & (~UART_LINE_CFG_DLAB);
   12260:	feb44783          	lbu	a5,-21(s0)
   12264:	07f7f793          	andi	a5,a5,127
   12268:	fef405a3          	sb	a5,-21(s0)
D:\CreateIC\01_CPIPC\riscv\RISCV_ENC_20220421\Firmware_true\app_prj\app_demo\Debug/../src/Bsp/Driver/hme_uart.c:164
	pstUartCtrller->LCR = ucLineState;
   1226c:	feb44703          	lbu	a4,-21(s0)
   12270:	fec42783          	lw	a5,-20(s0)
   12274:	02e7a623          	sw	a4,44(a5)
D:\CreateIC\01_CPIPC\riscv\RISCV_ENC_20220421\Firmware_true\app_prj\app_demo\Debug/../src/Bsp/Driver/hme_uart.c:165
}
   12278:	00000013          	nop
   1227c:	02c12083          	lw	ra,44(sp)
   12280:	02812403          	lw	s0,40(sp)
   12284:	03010113          	addi	sp,sp,48
   12288:	00008067          	ret

0001228c <UartBaudDivCfg>:
UartBaudDivCfg():
D:\CreateIC\01_CPIPC\riscv\RISCV_ENC_20220421\Firmware_true\app_prj\app_demo\Debug/../src/Bsp/Driver/hme_uart.c:173
 * @brief  UART波特率分频配置
 * @param  pstUartObj：UART设备对象
 * @retval 无
*****************************************************************/
void UartBaudDivCfg(PST_UART_ATTR pstUartObj)
{
   1228c:	fd010113          	addi	sp,sp,-48
   12290:	02112623          	sw	ra,44(sp)
   12294:	02812423          	sw	s0,40(sp)
   12298:	03010413          	addi	s0,sp,48
   1229c:	fca42e23          	sw	a0,-36(s0)
D:\CreateIC\01_CPIPC\riscv\RISCV_ENC_20220421\Firmware_true\app_prj\app_demo\Debug/../src/Bsp/Driver/hme_uart.c:174
	assert_param(NULL != pstUartObj);
   122a0:	fdc42783          	lw	a5,-36(s0)
   122a4:	00079a63          	bnez	a5,122b8 <UartBaudDivCfg+0x2c>
D:\CreateIC\01_CPIPC\riscv\RISCV_ENC_20220421\Firmware_true\app_prj\app_demo\Debug/../src/Bsp/Driver/hme_uart.c:174 (discriminator 1)
   122a8:	0ae00593          	li	a1,174
   122ac:	000157b7          	lui	a5,0x15
   122b0:	12078513          	addi	a0,a5,288 # 15120 <__init_array_end+0xb4>
   122b4:	0cc010ef          	jal	ra,13380 <assert_failed>
D:\CreateIC\01_CPIPC\riscv\RISCV_ENC_20220421\Firmware_true\app_prj\app_demo\Debug/../src/Bsp/Driver/hme_uart.c:175
	assert_param(NULL != pstUartObj->pstCtrller);
   122b8:	fdc42783          	lw	a5,-36(s0)
   122bc:	0207a783          	lw	a5,32(a5)
   122c0:	00079a63          	bnez	a5,122d4 <UartBaudDivCfg+0x48>
D:\CreateIC\01_CPIPC\riscv\RISCV_ENC_20220421\Firmware_true\app_prj\app_demo\Debug/../src/Bsp/Driver/hme_uart.c:175 (discriminator 1)
   122c4:	0af00593          	li	a1,175
   122c8:	000157b7          	lui	a5,0x15
   122cc:	12078513          	addi	a0,a5,288 # 15120 <__init_array_end+0xb4>
   122d0:	0b0010ef          	jal	ra,13380 <assert_failed>
D:\CreateIC\01_CPIPC\riscv\RISCV_ENC_20220421\Firmware_true\app_prj\app_demo\Debug/../src/Bsp/Driver/hme_uart.c:177

	PST_UART_RegDef pstUartCtrller = pstUartObj->pstCtrller;
   122d4:	fdc42783          	lw	a5,-36(s0)
   122d8:	0207a783          	lw	a5,32(a5)
   122dc:	fef42623          	sw	a5,-20(s0)
D:\CreateIC\01_CPIPC\riscv\RISCV_ENC_20220421\Firmware_true\app_prj\app_demo\Debug/../src/Bsp/Driver/hme_uart.c:178
	uint16_t usBaudDiv = pstUartObj->stCfgParam.usBaudDiv;
   122e0:	fdc42783          	lw	a5,-36(s0)
   122e4:	0147d783          	lhu	a5,20(a5)
   122e8:	fef41523          	sh	a5,-22(s0)
D:\CreateIC\01_CPIPC\riscv\RISCV_ENC_20220421\Firmware_true\app_prj\app_demo\Debug/../src/Bsp/Driver/hme_uart.c:180

	UartDivAccessSet(pstUartObj);
   122ec:	fdc42503          	lw	a0,-36(s0)
   122f0:	e7dff0ef          	jal	ra,1216c <UartDivAccessSet>
D:\CreateIC\01_CPIPC\riscv\RISCV_ENC_20220421\Firmware_true\app_prj\app_demo\Debug/../src/Bsp/Driver/hme_uart.c:181
	pstUartCtrller->DLL = (usBaudDiv >> 0) & 0xff;
   122f4:	fea45783          	lhu	a5,-22(s0)
   122f8:	0ff7f713          	andi	a4,a5,255
   122fc:	fec42783          	lw	a5,-20(s0)
   12300:	02e7a023          	sw	a4,32(a5)
D:\CreateIC\01_CPIPC\riscv\RISCV_ENC_20220421\Firmware_true\app_prj\app_demo\Debug/../src/Bsp/Driver/hme_uart.c:182
	pstUartCtrller->DLM = (usBaudDiv >> 8) & 0xff;
   12304:	fea45783          	lhu	a5,-22(s0)
   12308:	0087d793          	srli	a5,a5,0x8
   1230c:	01079793          	slli	a5,a5,0x10
   12310:	0107d793          	srli	a5,a5,0x10
   12314:	0ff7f713          	andi	a4,a5,255
   12318:	fec42783          	lw	a5,-20(s0)
   1231c:	02e7a223          	sw	a4,36(a5)
D:\CreateIC\01_CPIPC\riscv\RISCV_ENC_20220421\Firmware_true\app_prj\app_demo\Debug/../src/Bsp/Driver/hme_uart.c:183
	UartDivAccessClear(pstUartObj);
   12320:	fdc42503          	lw	a0,-36(s0)
   12324:	ed9ff0ef          	jal	ra,121fc <UartDivAccessClear>
D:\CreateIC\01_CPIPC\riscv\RISCV_ENC_20220421\Firmware_true\app_prj\app_demo\Debug/../src/Bsp/Driver/hme_uart.c:184
}
   12328:	00000013          	nop
   1232c:	02c12083          	lw	ra,44(sp)
   12330:	02812403          	lw	s0,40(sp)
   12334:	03010113          	addi	sp,sp,48
   12338:	00008067          	ret

0001233c <UartTranModeCfg>:
UartTranModeCfg():
D:\CreateIC\01_CPIPC\riscv\RISCV_ENC_20220421\Firmware_true\app_prj\app_demo\Debug/../src/Bsp/Driver/hme_uart.c:214
 * @brief  UART数据传输方式配置
 * @param  pstUartObj：UART设备对象
 * @retval 无
*****************************************************************/
void UartTranModeCfg(PST_UART_ATTR pstUartObj)
{
   1233c:	fd010113          	addi	sp,sp,-48
   12340:	02112623          	sw	ra,44(sp)
   12344:	02812423          	sw	s0,40(sp)
   12348:	03010413          	addi	s0,sp,48
   1234c:	fca42e23          	sw	a0,-36(s0)
D:\CreateIC\01_CPIPC\riscv\RISCV_ENC_20220421\Firmware_true\app_prj\app_demo\Debug/../src/Bsp/Driver/hme_uart.c:215
	assert_param(NULL != pstUartObj);
   12350:	fdc42783          	lw	a5,-36(s0)
   12354:	00079a63          	bnez	a5,12368 <UartTranModeCfg+0x2c>
D:\CreateIC\01_CPIPC\riscv\RISCV_ENC_20220421\Firmware_true\app_prj\app_demo\Debug/../src/Bsp/Driver/hme_uart.c:215 (discriminator 1)
   12358:	0d700593          	li	a1,215
   1235c:	000157b7          	lui	a5,0x15
   12360:	12078513          	addi	a0,a5,288 # 15120 <__init_array_end+0xb4>
   12364:	01c010ef          	jal	ra,13380 <assert_failed>
D:\CreateIC\01_CPIPC\riscv\RISCV_ENC_20220421\Firmware_true\app_prj\app_demo\Debug/../src/Bsp/Driver/hme_uart.c:216
	assert_param(NULL != pstUartObj->pstCtrller);
   12368:	fdc42783          	lw	a5,-36(s0)
   1236c:	0207a783          	lw	a5,32(a5)
   12370:	00079a63          	bnez	a5,12384 <UartTranModeCfg+0x48>
D:\CreateIC\01_CPIPC\riscv\RISCV_ENC_20220421\Firmware_true\app_prj\app_demo\Debug/../src/Bsp/Driver/hme_uart.c:216 (discriminator 1)
   12374:	0d800593          	li	a1,216
   12378:	000157b7          	lui	a5,0x15
   1237c:	12078513          	addi	a0,a5,288 # 15120 <__init_array_end+0xb4>
   12380:	000010ef          	jal	ra,13380 <assert_failed>
D:\CreateIC\01_CPIPC\riscv\RISCV_ENC_20220421\Firmware_true\app_prj\app_demo\Debug/../src/Bsp/Driver/hme_uart.c:218

	PST_UART_RegDef pstUartCtrller = pstUartObj->pstCtrller;
   12384:	fdc42783          	lw	a5,-36(s0)
   12388:	0207a783          	lw	a5,32(a5)
   1238c:	fef42623          	sw	a5,-20(s0)
D:\CreateIC\01_CPIPC\riscv\RISCV_ENC_20220421\Firmware_true\app_prj\app_demo\Debug/../src/Bsp/Driver/hme_uart.c:219
	pstUartCtrller->LCR = pstUartObj->stCfgParam.ucLineCtrl;
   12390:	fdc42783          	lw	a5,-36(s0)
   12394:	0197c783          	lbu	a5,25(a5)
   12398:	00078713          	mv	a4,a5
   1239c:	fec42783          	lw	a5,-20(s0)
   123a0:	02e7a623          	sw	a4,44(a5)
D:\CreateIC\01_CPIPC\riscv\RISCV_ENC_20220421\Firmware_true\app_prj\app_demo\Debug/../src/Bsp/Driver/hme_uart.c:220
}
   123a4:	00000013          	nop
   123a8:	02c12083          	lw	ra,44(sp)
   123ac:	02812403          	lw	s0,40(sp)
   123b0:	03010113          	addi	sp,sp,48
   123b4:	00008067          	ret

000123b8 <UartFifoCfg>:
UartFifoCfg():
D:\CreateIC\01_CPIPC\riscv\RISCV_ENC_20220421\Firmware_true\app_prj\app_demo\Debug/../src/Bsp/Driver/hme_uart.c:242
 * @brief  UART FIFO配置
 * @param  pstUartObj：UART设备对象
 * @retval 无
*****************************************************************/
void UartFifoCfg(PST_UART_ATTR pstUartObj)
{
   123b8:	fd010113          	addi	sp,sp,-48
   123bc:	02112623          	sw	ra,44(sp)
   123c0:	02812423          	sw	s0,40(sp)
   123c4:	03010413          	addi	s0,sp,48
   123c8:	fca42e23          	sw	a0,-36(s0)
D:\CreateIC\01_CPIPC\riscv\RISCV_ENC_20220421\Firmware_true\app_prj\app_demo\Debug/../src/Bsp/Driver/hme_uart.c:243
	assert_param(NULL != pstUartObj);
   123cc:	fdc42783          	lw	a5,-36(s0)
   123d0:	00079a63          	bnez	a5,123e4 <UartFifoCfg+0x2c>
D:\CreateIC\01_CPIPC\riscv\RISCV_ENC_20220421\Firmware_true\app_prj\app_demo\Debug/../src/Bsp/Driver/hme_uart.c:243 (discriminator 1)
   123d4:	0f300593          	li	a1,243
   123d8:	000157b7          	lui	a5,0x15
   123dc:	12078513          	addi	a0,a5,288 # 15120 <__init_array_end+0xb4>
   123e0:	7a1000ef          	jal	ra,13380 <assert_failed>
D:\CreateIC\01_CPIPC\riscv\RISCV_ENC_20220421\Firmware_true\app_prj\app_demo\Debug/../src/Bsp/Driver/hme_uart.c:244
	assert_param(NULL != pstUartObj->pstCtrller);
   123e4:	fdc42783          	lw	a5,-36(s0)
   123e8:	0207a783          	lw	a5,32(a5)
   123ec:	00079a63          	bnez	a5,12400 <UartFifoCfg+0x48>
D:\CreateIC\01_CPIPC\riscv\RISCV_ENC_20220421\Firmware_true\app_prj\app_demo\Debug/../src/Bsp/Driver/hme_uart.c:244 (discriminator 1)
   123f0:	0f400593          	li	a1,244
   123f4:	000157b7          	lui	a5,0x15
   123f8:	12078513          	addi	a0,a5,288 # 15120 <__init_array_end+0xb4>
   123fc:	785000ef          	jal	ra,13380 <assert_failed>
D:\CreateIC\01_CPIPC\riscv\RISCV_ENC_20220421\Firmware_true\app_prj\app_demo\Debug/../src/Bsp/Driver/hme_uart.c:246

	PST_UART_RegDef pstUartCtrller = pstUartObj->pstCtrller;
   12400:	fdc42783          	lw	a5,-36(s0)
   12404:	0207a783          	lw	a5,32(a5)
   12408:	fef42623          	sw	a5,-20(s0)
D:\CreateIC\01_CPIPC\riscv\RISCV_ENC_20220421\Firmware_true\app_prj\app_demo\Debug/../src/Bsp/Driver/hme_uart.c:247
	pstUartCtrller->FCR = pstUartObj->stCfgParam.ucFifoCtrl;
   1240c:	fdc42783          	lw	a5,-36(s0)
   12410:	0187c783          	lbu	a5,24(a5)
   12414:	00078713          	mv	a4,a5
   12418:	fec42783          	lw	a5,-20(s0)
   1241c:	02e7a423          	sw	a4,40(a5)
D:\CreateIC\01_CPIPC\riscv\RISCV_ENC_20220421\Firmware_true\app_prj\app_demo\Debug/../src/Bsp/Driver/hme_uart.c:248
}
   12420:	00000013          	nop
   12424:	02c12083          	lw	ra,44(sp)
   12428:	02812403          	lw	s0,40(sp)
   1242c:	03010113          	addi	sp,sp,48
   12430:	00008067          	ret

00012434 <UartOscCfg>:
UartOscCfg():
D:\CreateIC\01_CPIPC\riscv\RISCV_ENC_20220421\Firmware_true\app_prj\app_demo\Debug/../src/Bsp/Driver/hme_uart.c:295
 * @brief  UART过采样参数配置
 * @param  pstUartObj：UART设备对象
 * @retval 无
*****************************************************************/
void UartOscCfg(PST_UART_ATTR pstUartObj)
{
   12434:	fd010113          	addi	sp,sp,-48
   12438:	02112623          	sw	ra,44(sp)
   1243c:	02812423          	sw	s0,40(sp)
   12440:	03010413          	addi	s0,sp,48
   12444:	fca42e23          	sw	a0,-36(s0)
D:\CreateIC\01_CPIPC\riscv\RISCV_ENC_20220421\Firmware_true\app_prj\app_demo\Debug/../src/Bsp/Driver/hme_uart.c:296
	assert_param(NULL != pstUartObj);
   12448:	fdc42783          	lw	a5,-36(s0)
   1244c:	00079a63          	bnez	a5,12460 <UartOscCfg+0x2c>
D:\CreateIC\01_CPIPC\riscv\RISCV_ENC_20220421\Firmware_true\app_prj\app_demo\Debug/../src/Bsp/Driver/hme_uart.c:296 (discriminator 1)
   12450:	12800593          	li	a1,296
   12454:	000157b7          	lui	a5,0x15
   12458:	12078513          	addi	a0,a5,288 # 15120 <__init_array_end+0xb4>
   1245c:	725000ef          	jal	ra,13380 <assert_failed>
D:\CreateIC\01_CPIPC\riscv\RISCV_ENC_20220421\Firmware_true\app_prj\app_demo\Debug/../src/Bsp/Driver/hme_uart.c:297
	assert_param(NULL != pstUartObj->pstCtrller);
   12460:	fdc42783          	lw	a5,-36(s0)
   12464:	0207a783          	lw	a5,32(a5)
   12468:	00079a63          	bnez	a5,1247c <UartOscCfg+0x48>
D:\CreateIC\01_CPIPC\riscv\RISCV_ENC_20220421\Firmware_true\app_prj\app_demo\Debug/../src/Bsp/Driver/hme_uart.c:297 (discriminator 1)
   1246c:	12900593          	li	a1,297
   12470:	000157b7          	lui	a5,0x15
   12474:	12078513          	addi	a0,a5,288 # 15120 <__init_array_end+0xb4>
   12478:	709000ef          	jal	ra,13380 <assert_failed>
D:\CreateIC\01_CPIPC\riscv\RISCV_ENC_20220421\Firmware_true\app_prj\app_demo\Debug/../src/Bsp/Driver/hme_uart.c:299

	PST_UART_RegDef pstUartCtrller = pstUartObj->pstCtrller;
   1247c:	fdc42783          	lw	a5,-36(s0)
   12480:	0207a783          	lw	a5,32(a5)
   12484:	fef42623          	sw	a5,-20(s0)
D:\CreateIC\01_CPIPC\riscv\RISCV_ENC_20220421\Firmware_true\app_prj\app_demo\Debug/../src/Bsp/Driver/hme_uart.c:300
	pstUartCtrller->OSCR = pstUartObj->stCfgParam.ucOscCtrl;
   12488:	fdc42783          	lw	a5,-36(s0)
   1248c:	0177c783          	lbu	a5,23(a5)
   12490:	00078713          	mv	a4,a5
   12494:	fec42783          	lw	a5,-20(s0)
   12498:	00e7aa23          	sw	a4,20(a5)
D:\CreateIC\01_CPIPC\riscv\RISCV_ENC_20220421\Firmware_true\app_prj\app_demo\Debug/../src/Bsp/Driver/hme_uart.c:301
}
   1249c:	00000013          	nop
   124a0:	02c12083          	lw	ra,44(sp)
   124a4:	02812403          	lw	s0,40(sp)
   124a8:	03010113          	addi	sp,sp,48
   124ac:	00008067          	ret

000124b0 <UartLineStatusGet>:
UartLineStatusGet():
D:\CreateIC\01_CPIPC\riscv\RISCV_ENC_20220421\Firmware_true\app_prj\app_demo\Debug/../src/Bsp/Driver/hme_uart.c:309
 * @brief  UART LSR状态数据获取
 * @param  pstUartObj：UART设备对象
 * @retval uint8_t：返回LSR状态数据
*****************************************************************/
uint8_t UartLineStatusGet(PST_UART_ATTR pstUartObj)
{
   124b0:	fd010113          	addi	sp,sp,-48
   124b4:	02112623          	sw	ra,44(sp)
   124b8:	02812423          	sw	s0,40(sp)
   124bc:	03010413          	addi	s0,sp,48
   124c0:	fca42e23          	sw	a0,-36(s0)
D:\CreateIC\01_CPIPC\riscv\RISCV_ENC_20220421\Firmware_true\app_prj\app_demo\Debug/../src/Bsp/Driver/hme_uart.c:310
	assert_param(NULL != pstUartObj);
   124c4:	fdc42783          	lw	a5,-36(s0)
   124c8:	00079a63          	bnez	a5,124dc <UartLineStatusGet+0x2c>
D:\CreateIC\01_CPIPC\riscv\RISCV_ENC_20220421\Firmware_true\app_prj\app_demo\Debug/../src/Bsp/Driver/hme_uart.c:310 (discriminator 1)
   124cc:	13600593          	li	a1,310
   124d0:	000157b7          	lui	a5,0x15
   124d4:	12078513          	addi	a0,a5,288 # 15120 <__init_array_end+0xb4>
   124d8:	6a9000ef          	jal	ra,13380 <assert_failed>
D:\CreateIC\01_CPIPC\riscv\RISCV_ENC_20220421\Firmware_true\app_prj\app_demo\Debug/../src/Bsp/Driver/hme_uart.c:311
	assert_param(NULL != pstUartObj->pstCtrller);
   124dc:	fdc42783          	lw	a5,-36(s0)
   124e0:	0207a783          	lw	a5,32(a5)
   124e4:	00079a63          	bnez	a5,124f8 <UartLineStatusGet+0x48>
D:\CreateIC\01_CPIPC\riscv\RISCV_ENC_20220421\Firmware_true\app_prj\app_demo\Debug/../src/Bsp/Driver/hme_uart.c:311 (discriminator 1)
   124e8:	13700593          	li	a1,311
   124ec:	000157b7          	lui	a5,0x15
   124f0:	12078513          	addi	a0,a5,288 # 15120 <__init_array_end+0xb4>
   124f4:	68d000ef          	jal	ra,13380 <assert_failed>
D:\CreateIC\01_CPIPC\riscv\RISCV_ENC_20220421\Firmware_true\app_prj\app_demo\Debug/../src/Bsp/Driver/hme_uart.c:313

	PST_UART_RegDef pstUartCtrller = pstUartObj->pstCtrller;
   124f8:	fdc42783          	lw	a5,-36(s0)
   124fc:	0207a783          	lw	a5,32(a5)
   12500:	fef42623          	sw	a5,-20(s0)
D:\CreateIC\01_CPIPC\riscv\RISCV_ENC_20220421\Firmware_true\app_prj\app_demo\Debug/../src/Bsp/Driver/hme_uart.c:314
	return pstUartCtrller->LSR;
   12504:	fec42783          	lw	a5,-20(s0)
   12508:	0347a783          	lw	a5,52(a5)
   1250c:	0ff7f793          	andi	a5,a5,255
D:\CreateIC\01_CPIPC\riscv\RISCV_ENC_20220421\Firmware_true\app_prj\app_demo\Debug/../src/Bsp/Driver/hme_uart.c:315
}
   12510:	00078513          	mv	a0,a5
   12514:	02c12083          	lw	ra,44(sp)
   12518:	02812403          	lw	s0,40(sp)
   1251c:	03010113          	addi	sp,sp,48
   12520:	00008067          	ret

00012524 <UartModemCtrlCfg>:
UartModemCtrlCfg():
D:\CreateIC\01_CPIPC\riscv\RISCV_ENC_20220421\Firmware_true\app_prj\app_demo\Debug/../src/Bsp/Driver/hme_uart.c:323
 * @brief  UART modem配置
 * @param  pstUartObj：UART设备对象
 * @retval 无
*****************************************************************/
void UartModemCtrlCfg(PST_UART_ATTR pstUartObj)
{
   12524:	fe010113          	addi	sp,sp,-32
   12528:	00112e23          	sw	ra,28(sp)
   1252c:	00812c23          	sw	s0,24(sp)
   12530:	02010413          	addi	s0,sp,32
   12534:	fea42623          	sw	a0,-20(s0)
D:\CreateIC\01_CPIPC\riscv\RISCV_ENC_20220421\Firmware_true\app_prj\app_demo\Debug/../src/Bsp/Driver/hme_uart.c:324
	assert_param(NULL != pstUartObj);
   12538:	fec42783          	lw	a5,-20(s0)
   1253c:	00079a63          	bnez	a5,12550 <UartModemCtrlCfg+0x2c>
D:\CreateIC\01_CPIPC\riscv\RISCV_ENC_20220421\Firmware_true\app_prj\app_demo\Debug/../src/Bsp/Driver/hme_uart.c:324 (discriminator 1)
   12540:	14400593          	li	a1,324
   12544:	000157b7          	lui	a5,0x15
   12548:	12078513          	addi	a0,a5,288 # 15120 <__init_array_end+0xb4>
   1254c:	635000ef          	jal	ra,13380 <assert_failed>
D:\CreateIC\01_CPIPC\riscv\RISCV_ENC_20220421\Firmware_true\app_prj\app_demo\Debug/../src/Bsp/Driver/hme_uart.c:325
	assert_param(NULL != pstUartObj->pstCtrller);
   12550:	fec42783          	lw	a5,-20(s0)
   12554:	0207a783          	lw	a5,32(a5)
   12558:	00079a63          	bnez	a5,1256c <UartModemCtrlCfg+0x48>
D:\CreateIC\01_CPIPC\riscv\RISCV_ENC_20220421\Firmware_true\app_prj\app_demo\Debug/../src/Bsp/Driver/hme_uart.c:325 (discriminator 1)
   1255c:	14500593          	li	a1,325
   12560:	000157b7          	lui	a5,0x15
   12564:	12078513          	addi	a0,a5,288 # 15120 <__init_array_end+0xb4>
   12568:	619000ef          	jal	ra,13380 <assert_failed>
D:\CreateIC\01_CPIPC\riscv\RISCV_ENC_20220421\Firmware_true\app_prj\app_demo\Debug/../src/Bsp/Driver/hme_uart.c:327

	pstUartObj->pstCtrller->MCR = pstUartObj->stCfgParam.ucModemCtrl;
   1256c:	fec42783          	lw	a5,-20(s0)
   12570:	01a7c703          	lbu	a4,26(a5)
   12574:	fec42783          	lw	a5,-20(s0)
   12578:	0207a783          	lw	a5,32(a5)
   1257c:	02e7a823          	sw	a4,48(a5)
D:\CreateIC\01_CPIPC\riscv\RISCV_ENC_20220421\Firmware_true\app_prj\app_demo\Debug/../src/Bsp/Driver/hme_uart.c:328
}
   12580:	00000013          	nop
   12584:	01c12083          	lw	ra,28(sp)
   12588:	01812403          	lw	s0,24(sp)
   1258c:	02010113          	addi	sp,sp,32
   12590:	00008067          	ret

00012594 <UartModemStatusGet>:
UartModemStatusGet():
D:\CreateIC\01_CPIPC\riscv\RISCV_ENC_20220421\Firmware_true\app_prj\app_demo\Debug/../src/Bsp/Driver/hme_uart.c:350
 * @brief  UART modem状态参数获取
 * @param  pstUartObj：UART设备对象
 * @retval uint8_t：返回modem状态数据
*****************************************************************/
uint8_t UartModemStatusGet(PST_UART_ATTR pstUartObj)
{
   12594:	fd010113          	addi	sp,sp,-48
   12598:	02112623          	sw	ra,44(sp)
   1259c:	02812423          	sw	s0,40(sp)
   125a0:	03010413          	addi	s0,sp,48
   125a4:	fca42e23          	sw	a0,-36(s0)
D:\CreateIC\01_CPIPC\riscv\RISCV_ENC_20220421\Firmware_true\app_prj\app_demo\Debug/../src/Bsp/Driver/hme_uart.c:351
	assert_param(NULL != pstUartObj);
   125a8:	fdc42783          	lw	a5,-36(s0)
   125ac:	00079a63          	bnez	a5,125c0 <UartModemStatusGet+0x2c>
D:\CreateIC\01_CPIPC\riscv\RISCV_ENC_20220421\Firmware_true\app_prj\app_demo\Debug/../src/Bsp/Driver/hme_uart.c:351 (discriminator 1)
   125b0:	15f00593          	li	a1,351
   125b4:	000157b7          	lui	a5,0x15
   125b8:	12078513          	addi	a0,a5,288 # 15120 <__init_array_end+0xb4>
   125bc:	5c5000ef          	jal	ra,13380 <assert_failed>
D:\CreateIC\01_CPIPC\riscv\RISCV_ENC_20220421\Firmware_true\app_prj\app_demo\Debug/../src/Bsp/Driver/hme_uart.c:352
	assert_param(NULL != pstUartObj->pstCtrller);
   125c0:	fdc42783          	lw	a5,-36(s0)
   125c4:	0207a783          	lw	a5,32(a5)
   125c8:	00079a63          	bnez	a5,125dc <UartModemStatusGet+0x48>
D:\CreateIC\01_CPIPC\riscv\RISCV_ENC_20220421\Firmware_true\app_prj\app_demo\Debug/../src/Bsp/Driver/hme_uart.c:352 (discriminator 1)
   125cc:	16000593          	li	a1,352
   125d0:	000157b7          	lui	a5,0x15
   125d4:	12078513          	addi	a0,a5,288 # 15120 <__init_array_end+0xb4>
   125d8:	5a9000ef          	jal	ra,13380 <assert_failed>
D:\CreateIC\01_CPIPC\riscv\RISCV_ENC_20220421\Firmware_true\app_prj\app_demo\Debug/../src/Bsp/Driver/hme_uart.c:354

	PST_UART_RegDef pstUartCtrller = pstUartObj->pstCtrller;
   125dc:	fdc42783          	lw	a5,-36(s0)
   125e0:	0207a783          	lw	a5,32(a5)
   125e4:	fef42623          	sw	a5,-20(s0)
D:\CreateIC\01_CPIPC\riscv\RISCV_ENC_20220421\Firmware_true\app_prj\app_demo\Debug/../src/Bsp/Driver/hme_uart.c:355
	return pstUartCtrller->MSR;
   125e8:	fec42783          	lw	a5,-20(s0)
   125ec:	0387a783          	lw	a5,56(a5)
   125f0:	0ff7f793          	andi	a5,a5,255
D:\CreateIC\01_CPIPC\riscv\RISCV_ENC_20220421\Firmware_true\app_prj\app_demo\Debug/../src/Bsp/Driver/hme_uart.c:356
}
   125f4:	00078513          	mv	a0,a5
   125f8:	02c12083          	lw	ra,44(sp)
   125fc:	02812403          	lw	s0,40(sp)
   12600:	03010113          	addi	sp,sp,48
   12604:	00008067          	ret

00012608 <UartScratchCfg>:
UartScratchCfg():
D:\CreateIC\01_CPIPC\riscv\RISCV_ENC_20220421\Firmware_true\app_prj\app_demo\Debug/../src/Bsp/Driver/hme_uart.c:364
 * @brief  Uart Scratch 参数配置
 * @param  pstUartObj：UART设备对象
 * @retval 无
*****************************************************************/
void UartScratchCfg(PST_UART_ATTR pstUartObj)
{
   12608:	fd010113          	addi	sp,sp,-48
   1260c:	02112623          	sw	ra,44(sp)
   12610:	02812423          	sw	s0,40(sp)
   12614:	03010413          	addi	s0,sp,48
   12618:	fca42e23          	sw	a0,-36(s0)
D:\CreateIC\01_CPIPC\riscv\RISCV_ENC_20220421\Firmware_true\app_prj\app_demo\Debug/../src/Bsp/Driver/hme_uart.c:365
	assert_param(NULL != pstUartObj);
   1261c:	fdc42783          	lw	a5,-36(s0)
   12620:	00079a63          	bnez	a5,12634 <UartScratchCfg+0x2c>
D:\CreateIC\01_CPIPC\riscv\RISCV_ENC_20220421\Firmware_true\app_prj\app_demo\Debug/../src/Bsp/Driver/hme_uart.c:365 (discriminator 1)
   12624:	16d00593          	li	a1,365
   12628:	000157b7          	lui	a5,0x15
   1262c:	12078513          	addi	a0,a5,288 # 15120 <__init_array_end+0xb4>
   12630:	551000ef          	jal	ra,13380 <assert_failed>
D:\CreateIC\01_CPIPC\riscv\RISCV_ENC_20220421\Firmware_true\app_prj\app_demo\Debug/../src/Bsp/Driver/hme_uart.c:366
	assert_param(NULL != pstUartObj->pstCtrller);
   12634:	fdc42783          	lw	a5,-36(s0)
   12638:	0207a783          	lw	a5,32(a5)
   1263c:	00079a63          	bnez	a5,12650 <UartScratchCfg+0x48>
D:\CreateIC\01_CPIPC\riscv\RISCV_ENC_20220421\Firmware_true\app_prj\app_demo\Debug/../src/Bsp/Driver/hme_uart.c:366 (discriminator 1)
   12640:	16e00593          	li	a1,366
   12644:	000157b7          	lui	a5,0x15
   12648:	12078513          	addi	a0,a5,288 # 15120 <__init_array_end+0xb4>
   1264c:	535000ef          	jal	ra,13380 <assert_failed>
D:\CreateIC\01_CPIPC\riscv\RISCV_ENC_20220421\Firmware_true\app_prj\app_demo\Debug/../src/Bsp/Driver/hme_uart.c:368

	PST_UART_RegDef pstUartCtrller = pstUartObj->pstCtrller;
   12650:	fdc42783          	lw	a5,-36(s0)
   12654:	0207a783          	lw	a5,32(a5)
   12658:	fef42623          	sw	a5,-20(s0)
D:\CreateIC\01_CPIPC\riscv\RISCV_ENC_20220421\Firmware_true\app_prj\app_demo\Debug/../src/Bsp/Driver/hme_uart.c:369
	pstUartCtrller->SCR = pstUartObj->stCfgParam.ucScratchCtrl;
   1265c:	fdc42783          	lw	a5,-36(s0)
   12660:	01b7c783          	lbu	a5,27(a5)
   12664:	00078713          	mv	a4,a5
   12668:	fec42783          	lw	a5,-20(s0)
   1266c:	02e7ae23          	sw	a4,60(a5)
D:\CreateIC\01_CPIPC\riscv\RISCV_ENC_20220421\Firmware_true\app_prj\app_demo\Debug/../src/Bsp/Driver/hme_uart.c:370
}
   12670:	00000013          	nop
   12674:	02c12083          	lw	ra,44(sp)
   12678:	02812403          	lw	s0,40(sp)
   1267c:	03010113          	addi	sp,sp,48
   12680:	00008067          	ret

00012684 <UartByteSend>:
UartByteSend():
D:\CreateIC\01_CPIPC\riscv\RISCV_ENC_20220421\Firmware_true\app_prj\app_demo\Debug/../src/Bsp/Driver/hme_uart.c:392
 * @brief  UART字节发送
 * @param  pstUartObj：UART设备对象
 * @retval 无
*****************************************************************/
void UartByteSend(PST_UART_ATTR pstUartObj, const uint8_t ucSendData)
{
   12684:	fd010113          	addi	sp,sp,-48
   12688:	02112623          	sw	ra,44(sp)
   1268c:	02812423          	sw	s0,40(sp)
   12690:	03010413          	addi	s0,sp,48
   12694:	fca42e23          	sw	a0,-36(s0)
   12698:	00058793          	mv	a5,a1
   1269c:	fcf40da3          	sb	a5,-37(s0)
D:\CreateIC\01_CPIPC\riscv\RISCV_ENC_20220421\Firmware_true\app_prj\app_demo\Debug/../src/Bsp/Driver/hme_uart.c:393
	assert_param(NULL != pstUartObj);
   126a0:	fdc42783          	lw	a5,-36(s0)
   126a4:	00079a63          	bnez	a5,126b8 <UartByteSend+0x34>
D:\CreateIC\01_CPIPC\riscv\RISCV_ENC_20220421\Firmware_true\app_prj\app_demo\Debug/../src/Bsp/Driver/hme_uart.c:393 (discriminator 1)
   126a8:	18900593          	li	a1,393
   126ac:	000157b7          	lui	a5,0x15
   126b0:	12078513          	addi	a0,a5,288 # 15120 <__init_array_end+0xb4>
   126b4:	4cd000ef          	jal	ra,13380 <assert_failed>
D:\CreateIC\01_CPIPC\riscv\RISCV_ENC_20220421\Firmware_true\app_prj\app_demo\Debug/../src/Bsp/Driver/hme_uart.c:394
	assert_param(NULL != pstUartObj->pstCtrller);
   126b8:	fdc42783          	lw	a5,-36(s0)
   126bc:	0207a783          	lw	a5,32(a5)
   126c0:	00079a63          	bnez	a5,126d4 <UartByteSend+0x50>
D:\CreateIC\01_CPIPC\riscv\RISCV_ENC_20220421\Firmware_true\app_prj\app_demo\Debug/../src/Bsp/Driver/hme_uart.c:394 (discriminator 1)
   126c4:	18a00593          	li	a1,394
   126c8:	000157b7          	lui	a5,0x15
   126cc:	12078513          	addi	a0,a5,288 # 15120 <__init_array_end+0xb4>
   126d0:	4b1000ef          	jal	ra,13380 <assert_failed>
D:\CreateIC\01_CPIPC\riscv\RISCV_ENC_20220421\Firmware_true\app_prj\app_demo\Debug/../src/Bsp/Driver/hme_uart.c:396

	PST_UART_RegDef pstUartCtrller = pstUartObj->pstCtrller;
   126d4:	fdc42783          	lw	a5,-36(s0)
   126d8:	0207a783          	lw	a5,32(a5)
   126dc:	fef42623          	sw	a5,-20(s0)
D:\CreateIC\01_CPIPC\riscv\RISCV_ENC_20220421\Firmware_true\app_prj\app_demo\Debug/../src/Bsp/Driver/hme_uart.c:397
	uint8_t ucLsrState = 0;
   126e0:	fe0405a3          	sb	zero,-21(s0)
D:\CreateIC\01_CPIPC\riscv\RISCV_ENC_20220421\Firmware_true\app_prj\app_demo\Debug/../src/Bsp/Driver/hme_uart.c:401

	while (1)
	{
		ucLsrState = UartLineStatusGet(pstUartObj);
   126e4:	fdc42503          	lw	a0,-36(s0)
   126e8:	dc9ff0ef          	jal	ra,124b0 <UartLineStatusGet>
   126ec:	00050793          	mv	a5,a0
   126f0:	fef405a3          	sb	a5,-21(s0)
D:\CreateIC\01_CPIPC\riscv\RISCV_ENC_20220421\Firmware_true\app_prj\app_demo\Debug/../src/Bsp/Driver/hme_uart.c:402
		if ((ucLsrState & UART_LINE_STATE_THRE) == UART_LINE_STATE_THRE)
   126f4:	feb44783          	lbu	a5,-21(s0)
   126f8:	0207f793          	andi	a5,a5,32
   126fc:	fe0784e3          	beqz	a5,126e4 <UartByteSend+0x60>
D:\CreateIC\01_CPIPC\riscv\RISCV_ENC_20220421\Firmware_true\app_prj\app_demo\Debug/../src/Bsp/Driver/hme_uart.c:404
		{
			pstUartCtrller->THR = ucSendData;
   12700:	fdb44703          	lbu	a4,-37(s0)
   12704:	fec42783          	lw	a5,-20(s0)
   12708:	02e7a023          	sw	a4,32(a5)
D:\CreateIC\01_CPIPC\riscv\RISCV_ENC_20220421\Firmware_true\app_prj\app_demo\Debug/../src/Bsp/Driver/hme_uart.c:405
			break;
   1270c:	00000013          	nop
D:\CreateIC\01_CPIPC\riscv\RISCV_ENC_20220421\Firmware_true\app_prj\app_demo\Debug/../src/Bsp/Driver/hme_uart.c:408
		}
	}
}
   12710:	00000013          	nop
   12714:	02c12083          	lw	ra,44(sp)
   12718:	02812403          	lw	s0,40(sp)
   1271c:	03010113          	addi	sp,sp,48
   12720:	00008067          	ret

00012724 <UartIntrCfg>:
UartIntrCfg():
D:\CreateIC\01_CPIPC\riscv\RISCV_ENC_20220421\Firmware_true\app_prj\app_demo\Debug/../src/Bsp/Driver/hme_uart.c:546
 * @brief  UART中断配置
 * @param  pstUartObj：UART设备对象
 * @retval 无
*****************************************************************/
void UartIntrCfg(PST_UART_ATTR pstUartObj)
{
   12724:	fd010113          	addi	sp,sp,-48
   12728:	02112623          	sw	ra,44(sp)
   1272c:	02812423          	sw	s0,40(sp)
   12730:	03010413          	addi	s0,sp,48
   12734:	fca42e23          	sw	a0,-36(s0)
D:\CreateIC\01_CPIPC\riscv\RISCV_ENC_20220421\Firmware_true\app_prj\app_demo\Debug/../src/Bsp/Driver/hme_uart.c:547
	assert_param(NULL != pstUartObj);
   12738:	fdc42783          	lw	a5,-36(s0)
   1273c:	00079a63          	bnez	a5,12750 <UartIntrCfg+0x2c>
D:\CreateIC\01_CPIPC\riscv\RISCV_ENC_20220421\Firmware_true\app_prj\app_demo\Debug/../src/Bsp/Driver/hme_uart.c:547 (discriminator 1)
   12740:	22300593          	li	a1,547
   12744:	000157b7          	lui	a5,0x15
   12748:	12078513          	addi	a0,a5,288 # 15120 <__init_array_end+0xb4>
   1274c:	435000ef          	jal	ra,13380 <assert_failed>
D:\CreateIC\01_CPIPC\riscv\RISCV_ENC_20220421\Firmware_true\app_prj\app_demo\Debug/../src/Bsp/Driver/hme_uart.c:548
	assert_param(NULL != pstUartObj->pstCtrller);
   12750:	fdc42783          	lw	a5,-36(s0)
   12754:	0207a783          	lw	a5,32(a5)
   12758:	00079a63          	bnez	a5,1276c <UartIntrCfg+0x48>
D:\CreateIC\01_CPIPC\riscv\RISCV_ENC_20220421\Firmware_true\app_prj\app_demo\Debug/../src/Bsp/Driver/hme_uart.c:548 (discriminator 1)
   1275c:	22400593          	li	a1,548
   12760:	000157b7          	lui	a5,0x15
   12764:	12078513          	addi	a0,a5,288 # 15120 <__init_array_end+0xb4>
   12768:	419000ef          	jal	ra,13380 <assert_failed>
D:\CreateIC\01_CPIPC\riscv\RISCV_ENC_20220421\Firmware_true\app_prj\app_demo\Debug/../src/Bsp/Driver/hme_uart.c:550

	PST_UART_RegDef pstUartCtrller = pstUartObj->pstCtrller;
   1276c:	fdc42783          	lw	a5,-36(s0)
   12770:	0207a783          	lw	a5,32(a5)
   12774:	fef42623          	sw	a5,-20(s0)
D:\CreateIC\01_CPIPC\riscv\RISCV_ENC_20220421\Firmware_true\app_prj\app_demo\Debug/../src/Bsp/Driver/hme_uart.c:551
	pstUartCtrller->IER = pstUartObj->stCfgParam.ucIntrCtrl;
   12778:	fdc42783          	lw	a5,-36(s0)
   1277c:	0167c783          	lbu	a5,22(a5)
   12780:	00078713          	mv	a4,a5
   12784:	fec42783          	lw	a5,-20(s0)
   12788:	02e7a223          	sw	a4,36(a5)
D:\CreateIC\01_CPIPC\riscv\RISCV_ENC_20220421\Firmware_true\app_prj\app_demo\Debug/../src/Bsp/Driver/hme_uart.c:552
}
   1278c:	00000013          	nop
   12790:	02c12083          	lw	ra,44(sp)
   12794:	02812403          	lw	s0,40(sp)
   12798:	03010113          	addi	sp,sp,48
   1279c:	00008067          	ret

000127a0 <UartIntrIDGet>:
UartIntrIDGet():
D:\CreateIC\01_CPIPC\riscv\RISCV_ENC_20220421\Firmware_true\app_prj\app_demo\Debug/../src/Bsp/Driver/hme_uart.c:575
 * @brief  UART中断ID获取
 * @param  pstUartObj：UART设备对象
 * @retval 返回中断ID
*****************************************************************/
uint8_t UartIntrIDGet(PST_UART_ATTR pstUartObj)
{
   127a0:	fd010113          	addi	sp,sp,-48
   127a4:	02112623          	sw	ra,44(sp)
   127a8:	02812423          	sw	s0,40(sp)
   127ac:	03010413          	addi	s0,sp,48
   127b0:	fca42e23          	sw	a0,-36(s0)
D:\CreateIC\01_CPIPC\riscv\RISCV_ENC_20220421\Firmware_true\app_prj\app_demo\Debug/../src/Bsp/Driver/hme_uart.c:576
	assert_param(NULL != pstUartObj);
   127b4:	fdc42783          	lw	a5,-36(s0)
   127b8:	00079a63          	bnez	a5,127cc <UartIntrIDGet+0x2c>
D:\CreateIC\01_CPIPC\riscv\RISCV_ENC_20220421\Firmware_true\app_prj\app_demo\Debug/../src/Bsp/Driver/hme_uart.c:576 (discriminator 1)
   127bc:	24000593          	li	a1,576
   127c0:	000157b7          	lui	a5,0x15
   127c4:	12078513          	addi	a0,a5,288 # 15120 <__init_array_end+0xb4>
   127c8:	3b9000ef          	jal	ra,13380 <assert_failed>
D:\CreateIC\01_CPIPC\riscv\RISCV_ENC_20220421\Firmware_true\app_prj\app_demo\Debug/../src/Bsp/Driver/hme_uart.c:577
    assert_param(NULL != pstUartObj->pstCtrller);
   127cc:	fdc42783          	lw	a5,-36(s0)
   127d0:	0207a783          	lw	a5,32(a5)
   127d4:	00079a63          	bnez	a5,127e8 <UartIntrIDGet+0x48>
D:\CreateIC\01_CPIPC\riscv\RISCV_ENC_20220421\Firmware_true\app_prj\app_demo\Debug/../src/Bsp/Driver/hme_uart.c:577 (discriminator 1)
   127d8:	24100593          	li	a1,577
   127dc:	000157b7          	lui	a5,0x15
   127e0:	12078513          	addi	a0,a5,288 # 15120 <__init_array_end+0xb4>
   127e4:	39d000ef          	jal	ra,13380 <assert_failed>
D:\CreateIC\01_CPIPC\riscv\RISCV_ENC_20220421\Firmware_true\app_prj\app_demo\Debug/../src/Bsp/Driver/hme_uart.c:579

    PST_UART_RegDef pstUartCtrller = pstUartObj->pstCtrller;
   127e8:	fdc42783          	lw	a5,-36(s0)
   127ec:	0207a783          	lw	a5,32(a5)
   127f0:	fef42623          	sw	a5,-20(s0)
D:\CreateIC\01_CPIPC\riscv\RISCV_ENC_20220421\Firmware_true\app_prj\app_demo\Debug/../src/Bsp/Driver/hme_uart.c:580
    return (pstUartCtrller->IIR & 0x0F);
   127f4:	fec42783          	lw	a5,-20(s0)
   127f8:	0287a783          	lw	a5,40(a5)
   127fc:	0ff7f793          	andi	a5,a5,255
   12800:	00f7f793          	andi	a5,a5,15
   12804:	0ff7f793          	andi	a5,a5,255
D:\CreateIC\01_CPIPC\riscv\RISCV_ENC_20220421\Firmware_true\app_prj\app_demo\Debug/../src/Bsp/Driver/hme_uart.c:581
}
   12808:	00078513          	mv	a0,a5
   1280c:	02c12083          	lw	ra,44(sp)
   12810:	02812403          	lw	s0,40(sp)
   12814:	03010113          	addi	sp,sp,48
   12818:	00008067          	ret

0001281c <PlicUartHandle>:
PlicUartHandle():
D:\CreateIC\01_CPIPC\riscv\RISCV_ENC_20220421\Firmware_true\app_prj\app_demo\Debug/../src/Bsp/Driver/hme_uart.c:591
 * @brief  UART 中断执行接口
 * @param  ptrBackCall:回调参数
 * @retval 无
*****************************************************************/
void PlicUartHandle(void * ptrBackCall)
{
   1281c:	fd010113          	addi	sp,sp,-48
   12820:	02112623          	sw	ra,44(sp)
   12824:	02812423          	sw	s0,40(sp)
   12828:	03010413          	addi	s0,sp,48
   1282c:	fca42e23          	sw	a0,-36(s0)
D:\CreateIC\01_CPIPC\riscv\RISCV_ENC_20220421\Firmware_true\app_prj\app_demo\Debug/../src/Bsp/Driver/hme_uart.c:592
	uint8_t ucIntrId = 0;
   12830:	fe0407a3          	sb	zero,-17(s0)
D:\CreateIC\01_CPIPC\riscv\RISCV_ENC_20220421\Firmware_true\app_prj\app_demo\Debug/../src/Bsp/Driver/hme_uart.c:593
	PST_UART_ATTR ptrUartObj = NULL;
   12834:	fe042423          	sw	zero,-24(s0)
D:\CreateIC\01_CPIPC\riscv\RISCV_ENC_20220421\Firmware_true\app_prj\app_demo\Debug/../src/Bsp/Driver/hme_uart.c:594
	if (NULL != ptrBackCall)
   12838:	fdc42783          	lw	a5,-36(s0)
   1283c:	02078663          	beqz	a5,12868 <PlicUartHandle+0x4c>
D:\CreateIC\01_CPIPC\riscv\RISCV_ENC_20220421\Firmware_true\app_prj\app_demo\Debug/../src/Bsp/Driver/hme_uart.c:596
	{
		ptrUartObj = (PST_UART_ATTR)ptrBackCall;
   12840:	fdc42783          	lw	a5,-36(s0)
   12844:	fef42423          	sw	a5,-24(s0)
D:\CreateIC\01_CPIPC\riscv\RISCV_ENC_20220421\Firmware_true\app_prj\app_demo\Debug/../src/Bsp/Driver/hme_uart.c:598
		//读取中断状态
		ucIntrId = UartIntrIDGet(ptrUartObj);
   12848:	fe842503          	lw	a0,-24(s0)
   1284c:	f55ff0ef          	jal	ra,127a0 <UartIntrIDGet>
   12850:	00050793          	mv	a5,a0
   12854:	fef407a3          	sb	a5,-17(s0)
D:\CreateIC\01_CPIPC\riscv\RISCV_ENC_20220421\Firmware_true\app_prj\app_demo\Debug/../src/Bsp/Driver/hme_uart.c:600
		//执行中断接口判断
	    UartIntrDispatch(ptrUartObj, ucIntrId);
   12858:	fef40783          	lb	a5,-17(s0)
   1285c:	00078593          	mv	a1,a5
   12860:	fe842503          	lw	a0,-24(s0)
   12864:	018000ef          	jal	ra,1287c <UartIntrDispatch>
D:\CreateIC\01_CPIPC\riscv\RISCV_ENC_20220421\Firmware_true\app_prj\app_demo\Debug/../src/Bsp/Driver/hme_uart.c:604


	}
}
   12868:	00000013          	nop
   1286c:	02c12083          	lw	ra,44(sp)
   12870:	02812403          	lw	s0,40(sp)
   12874:	03010113          	addi	sp,sp,48
   12878:	00008067          	ret

0001287c <UartIntrDispatch>:
UartIntrDispatch():
D:\CreateIC\01_CPIPC\riscv\RISCV_ENC_20220421\Firmware_true\app_prj\app_demo\Debug/../src/Bsp/Driver/hme_uart.c:613
 * @brief  UART中断调度接口
 * @param  pstUartObj：UART设备对象， ucDispatch：调度参数
 * @retval 无
 *****************************************************************/
void UartIntrDispatch(PST_UART_ATTR pstUartObj, int8_t ucDispatch)
{
   1287c:	fe010113          	addi	sp,sp,-32
   12880:	00112e23          	sw	ra,28(sp)
   12884:	00812c23          	sw	s0,24(sp)
   12888:	02010413          	addi	s0,sp,32
   1288c:	fea42623          	sw	a0,-20(s0)
   12890:	00058793          	mv	a5,a1
   12894:	fef405a3          	sb	a5,-21(s0)
D:\CreateIC\01_CPIPC\riscv\RISCV_ENC_20220421\Firmware_true\app_prj\app_demo\Debug/../src/Bsp/Driver/hme_uart.c:614
	switch (ucDispatch)
   12898:	feb40783          	lb	a5,-21(s0)
   1289c:	00c00713          	li	a4,12
   128a0:	04f76c63          	bltu	a4,a5,128f8 <UartIntrDispatch+0x7c>
   128a4:	00279713          	slli	a4,a5,0x2
   128a8:	000157b7          	lui	a5,0x15
   128ac:	19478793          	addi	a5,a5,404 # 15194 <__init_array_end+0x128>
   128b0:	00f707b3          	add	a5,a4,a5
   128b4:	0007a783          	lw	a5,0(a5)
   128b8:	00078067          	jr	a5
D:\CreateIC\01_CPIPC\riscv\RISCV_ENC_20220421\Firmware_true\app_prj\app_demo\Debug/../src/Bsp/Driver/hme_uart.c:618
	{
	    case UART_INTR_ID_RLS:
	    {
	    	UartIntrRecvErr(pstUartObj);
   128bc:	fec42503          	lw	a0,-20(s0)
   128c0:	050000ef          	jal	ra,12910 <UartIntrRecvErr>
D:\CreateIC\01_CPIPC\riscv\RISCV_ENC_20220421\Firmware_true\app_prj\app_demo\Debug/../src/Bsp/Driver/hme_uart.c:619
	    	break;
   128c4:	0380006f          	j	128fc <UartIntrDispatch+0x80>
D:\CreateIC\01_CPIPC\riscv\RISCV_ENC_20220421\Firmware_true\app_prj\app_demo\Debug/../src/Bsp/Driver/hme_uart.c:623
	    }
	    case UART_INTR_ID_RDA:						// read data available
	    {
	    	UartIntrRecvExc(pstUartObj);
   128c8:	fec42503          	lw	a0,-20(s0)
   128cc:	074000ef          	jal	ra,12940 <UartIntrRecvExc>
D:\CreateIC\01_CPIPC\riscv\RISCV_ENC_20220421\Firmware_true\app_prj\app_demo\Debug/../src/Bsp/Driver/hme_uart.c:624
	    	break;
   128d0:	02c0006f          	j	128fc <UartIntrDispatch+0x80>
D:\CreateIC\01_CPIPC\riscv\RISCV_ENC_20220421\Firmware_true\app_prj\app_demo\Debug/../src/Bsp/Driver/hme_uart.c:628
	    }
	    case UART_INTR_ID_RCT:
	    {
	    	UartIntrRecvTimeOut(pstUartObj);
   128d4:	fec42503          	lw	a0,-20(s0)
   128d8:	2c8000ef          	jal	ra,12ba0 <UartIntrRecvTimeOut>
D:\CreateIC\01_CPIPC\riscv\RISCV_ENC_20220421\Firmware_true\app_prj\app_demo\Debug/../src/Bsp/Driver/hme_uart.c:629
	    	break;
   128dc:	0200006f          	j	128fc <UartIntrDispatch+0x80>
D:\CreateIC\01_CPIPC\riscv\RISCV_ENC_20220421\Firmware_true\app_prj\app_demo\Debug/../src/Bsp/Driver/hme_uart.c:633
	    }
	    case UART_INTR_ID_THRE:
	    {
	    	UartIntrSendExc(pstUartObj);
   128e0:	fec42503          	lw	a0,-20(s0)
   128e4:	324000ef          	jal	ra,12c08 <UartIntrSendExc>
D:\CreateIC\01_CPIPC\riscv\RISCV_ENC_20220421\Firmware_true\app_prj\app_demo\Debug/../src/Bsp/Driver/hme_uart.c:634
	    	break;
   128e8:	0140006f          	j	128fc <UartIntrDispatch+0x80>
D:\CreateIC\01_CPIPC\riscv\RISCV_ENC_20220421\Firmware_true\app_prj\app_demo\Debug/../src/Bsp/Driver/hme_uart.c:638
	    }
	    case UART_INTR_ID_MS:
	    {
	    	UartIntrModemExc(pstUartObj);
   128ec:	fec42503          	lw	a0,-20(s0)
   128f0:	348000ef          	jal	ra,12c38 <UartIntrModemExc>
D:\CreateIC\01_CPIPC\riscv\RISCV_ENC_20220421\Firmware_true\app_prj\app_demo\Debug/../src/Bsp/Driver/hme_uart.c:639
	    	break;
   128f4:	0080006f          	j	128fc <UartIntrDispatch+0x80>
D:\CreateIC\01_CPIPC\riscv\RISCV_ENC_20220421\Firmware_true\app_prj\app_demo\Debug/../src/Bsp/Driver/hme_uart.c:642
	    }
	    default:
	    	break;
   128f8:	00000013          	nop
D:\CreateIC\01_CPIPC\riscv\RISCV_ENC_20220421\Firmware_true\app_prj\app_demo\Debug/../src/Bsp/Driver/hme_uart.c:644
	}
}
   128fc:	00000013          	nop
   12900:	01c12083          	lw	ra,28(sp)
   12904:	01812403          	lw	s0,24(sp)
   12908:	02010113          	addi	sp,sp,32
   1290c:	00008067          	ret

00012910 <UartIntrRecvErr>:
UartIntrRecvErr():
D:\CreateIC\01_CPIPC\riscv\RISCV_ENC_20220421\Firmware_true\app_prj\app_demo\Debug/../src/Bsp/Driver/hme_uart.c:653
 * @param  pstUartObj：UART控制器对象
 * @retval 无
 * 注意：该接口预留，只作为测试处理
 *****************************************************************/
void UartIntrRecvErr(PST_UART_ATTR pstUartObj)
{
   12910:	fe010113          	addi	sp,sp,-32
   12914:	00112e23          	sw	ra,28(sp)
   12918:	00812c23          	sw	s0,24(sp)
   1291c:	02010413          	addi	s0,sp,32
   12920:	fea42623          	sw	a0,-20(s0)
D:\CreateIC\01_CPIPC\riscv\RISCV_ENC_20220421\Firmware_true\app_prj\app_demo\Debug/../src/Bsp/Driver/hme_uart.c:654
	UartLineStatusGet(pstUartObj);
   12924:	fec42503          	lw	a0,-20(s0)
   12928:	b89ff0ef          	jal	ra,124b0 <UartLineStatusGet>
D:\CreateIC\01_CPIPC\riscv\RISCV_ENC_20220421\Firmware_true\app_prj\app_demo\Debug/../src/Bsp/Driver/hme_uart.c:655
}
   1292c:	00000013          	nop
   12930:	01c12083          	lw	ra,28(sp)
   12934:	01812403          	lw	s0,24(sp)
   12938:	02010113          	addi	sp,sp,32
   1293c:	00008067          	ret

00012940 <UartIntrRecvExc>:
UartIntrRecvExc():
D:\CreateIC\01_CPIPC\riscv\RISCV_ENC_20220421\Firmware_true\app_prj\app_demo\Debug/../src/Bsp/Driver/hme_uart.c:671
 * @brief  UART中断接收
 * @param  pstUartObj：UART控制器对象
 * @retval 无
 *****************************************************************/
void UartIntrRecvExc(PST_UART_ATTR pstUartObj)
{
   12940:	fd010113          	addi	sp,sp,-48
   12944:	02112623          	sw	ra,44(sp)
   12948:	02812423          	sw	s0,40(sp)
   1294c:	03010413          	addi	s0,sp,48
   12950:	fca42e23          	sw	a0,-36(s0)
D:\CreateIC\01_CPIPC\riscv\RISCV_ENC_20220421\Firmware_true\app_prj\app_demo\Debug/../src/Bsp/Driver/hme_uart.c:672
	assert_param(NULL != pstUartObj);
   12954:	fdc42783          	lw	a5,-36(s0)
   12958:	00079a63          	bnez	a5,1296c <UartIntrRecvExc+0x2c>
D:\CreateIC\01_CPIPC\riscv\RISCV_ENC_20220421\Firmware_true\app_prj\app_demo\Debug/../src/Bsp/Driver/hme_uart.c:672 (discriminator 1)
   1295c:	2a000593          	li	a1,672
   12960:	000157b7          	lui	a5,0x15
   12964:	12078513          	addi	a0,a5,288 # 15120 <__init_array_end+0xb4>
   12968:	219000ef          	jal	ra,13380 <assert_failed>
D:\CreateIC\01_CPIPC\riscv\RISCV_ENC_20220421\Firmware_true\app_prj\app_demo\Debug/../src/Bsp/Driver/hme_uart.c:673
	assert_param(NULL != pstUartObj->pstCtrller);
   1296c:	fdc42783          	lw	a5,-36(s0)
   12970:	0207a783          	lw	a5,32(a5)
   12974:	00079a63          	bnez	a5,12988 <UartIntrRecvExc+0x48>
D:\CreateIC\01_CPIPC\riscv\RISCV_ENC_20220421\Firmware_true\app_prj\app_demo\Debug/../src/Bsp/Driver/hme_uart.c:673 (discriminator 1)
   12978:	2a100593          	li	a1,673
   1297c:	000157b7          	lui	a5,0x15
   12980:	12078513          	addi	a0,a5,288 # 15120 <__init_array_end+0xb4>
   12984:	1fd000ef          	jal	ra,13380 <assert_failed>
D:\CreateIC\01_CPIPC\riscv\RISCV_ENC_20220421\Firmware_true\app_prj\app_demo\Debug/../src/Bsp/Driver/hme_uart.c:674
	assert_param(NULL != pstUartObj->pucRecvBuf);
   12988:	fdc42783          	lw	a5,-36(s0)
   1298c:	0087a783          	lw	a5,8(a5)
   12990:	00079a63          	bnez	a5,129a4 <UartIntrRecvExc+0x64>
D:\CreateIC\01_CPIPC\riscv\RISCV_ENC_20220421\Firmware_true\app_prj\app_demo\Debug/../src/Bsp/Driver/hme_uart.c:674 (discriminator 1)
   12994:	2a200593          	li	a1,674
   12998:	000157b7          	lui	a5,0x15
   1299c:	12078513          	addi	a0,a5,288 # 15120 <__init_array_end+0xb4>
   129a0:	1e1000ef          	jal	ra,13380 <assert_failed>
D:\CreateIC\01_CPIPC\riscv\RISCV_ENC_20220421\Firmware_true\app_prj\app_demo\Debug/../src/Bsp/Driver/hme_uart.c:676

	uint8_t ucLineState = 0;
   129a4:	fe0405a3          	sb	zero,-21(s0)
D:\CreateIC\01_CPIPC\riscv\RISCV_ENC_20220421\Firmware_true\app_prj\app_demo\Debug/../src/Bsp/Driver/hme_uart.c:677
	uint8_t* pucRecvBuf = pstUartObj->pucRecvBuf;
   129a8:	fdc42783          	lw	a5,-36(s0)
   129ac:	0087a783          	lw	a5,8(a5)
   129b0:	fef42223          	sw	a5,-28(s0)
D:\CreateIC\01_CPIPC\riscv\RISCV_ENC_20220421\Firmware_true\app_prj\app_demo\Debug/../src/Bsp/Driver/hme_uart.c:679

	ucLineState =  UartLineStatusGet(pstUartObj);
   129b4:	fdc42503          	lw	a0,-36(s0)
   129b8:	af9ff0ef          	jal	ra,124b0 <UartLineStatusGet>
   129bc:	00050793          	mv	a5,a0
   129c0:	fef405a3          	sb	a5,-21(s0)
D:\CreateIC\01_CPIPC\riscv\RISCV_ENC_20220421\Firmware_true\app_prj\app_demo\Debug/../src/Bsp/Driver/hme_uart.c:681

	if ((ucLineState & UART_LINE_STATE_DR) == UART_LINE_STATE_DR)
   129c4:	feb44783          	lbu	a5,-21(s0)
   129c8:	0017f793          	andi	a5,a5,1
   129cc:	1c078063          	beqz	a5,12b8c <UartIntrRecvExc+0x24c>
D:\CreateIC\01_CPIPC\riscv\RISCV_ENC_20220421\Firmware_true\app_prj\app_demo\Debug/../src/Bsp/Driver/hme_uart.c:683
	{
		if(!wr_flag && !rd_flag){
   129d0:	000157b7          	lui	a5,0x15
   129d4:	5047c783          	lbu	a5,1284(a5) # 15504 <wr_flag>
   129d8:	0a079263          	bnez	a5,12a7c <UartIntrRecvExc+0x13c>
D:\CreateIC\01_CPIPC\riscv\RISCV_ENC_20220421\Firmware_true\app_prj\app_demo\Debug/../src/Bsp/Driver/hme_uart.c:683 (discriminator 1)
   129dc:	000157b7          	lui	a5,0x15
   129e0:	5057c783          	lbu	a5,1285(a5) # 15505 <rd_flag>
   129e4:	08079c63          	bnez	a5,12a7c <UartIntrRecvExc+0x13c>
D:\CreateIC\01_CPIPC\riscv\RISCV_ENC_20220421\Firmware_true\app_prj\app_demo\Debug/../src/Bsp/Driver/hme_uart.c:684
			if (pstUartObj->usRecvBytesCnt < pstUartObj->usRecvDataSize)
   129e8:	fdc42783          	lw	a5,-36(s0)
   129ec:	0127d703          	lhu	a4,18(a5)
   129f0:	fdc42783          	lw	a5,-36(s0)
   129f4:	00e7d783          	lhu	a5,14(a5)
   129f8:	06f77a63          	bgeu	a4,a5,12a6c <UartIntrRecvExc+0x12c>
D:\CreateIC\01_CPIPC\riscv\RISCV_ENC_20220421\Firmware_true\app_prj\app_demo\Debug/../src/Bsp/Driver/hme_uart.c:686
			{
			    pucRecvBuf[pstUartObj->usRecvBytesCnt] = pstUartObj->pstCtrller->RBR;
   129fc:	fdc42783          	lw	a5,-36(s0)
   12a00:	0207a783          	lw	a5,32(a5)
   12a04:	0207a703          	lw	a4,32(a5)
   12a08:	fdc42783          	lw	a5,-36(s0)
   12a0c:	0127d783          	lhu	a5,18(a5)
   12a10:	00078693          	mv	a3,a5
   12a14:	fe442783          	lw	a5,-28(s0)
   12a18:	00d787b3          	add	a5,a5,a3
   12a1c:	0ff77713          	andi	a4,a4,255
   12a20:	00e78023          	sb	a4,0(a5)
D:\CreateIC\01_CPIPC\riscv\RISCV_ENC_20220421\Firmware_true\app_prj\app_demo\Debug/../src/Bsp/Driver/hme_uart.c:687
			    printf("received data: %d\r", pucRecvBuf[pstUartObj->usRecvBytesCnt]);
   12a24:	fdc42783          	lw	a5,-36(s0)
   12a28:	0127d783          	lhu	a5,18(a5)
   12a2c:	00078713          	mv	a4,a5
   12a30:	fe442783          	lw	a5,-28(s0)
   12a34:	00e787b3          	add	a5,a5,a4
   12a38:	0007c783          	lbu	a5,0(a5)
   12a3c:	00078593          	mv	a1,a5
   12a40:	000157b7          	lui	a5,0x15
   12a44:	14078513          	addi	a0,a5,320 # 15140 <__init_array_end+0xd4>
   12a48:	274010ef          	jal	ra,13cbc <iprintf>
D:\CreateIC\01_CPIPC\riscv\RISCV_ENC_20220421\Firmware_true\app_prj\app_demo\Debug/../src/Bsp/Driver/hme_uart.c:688
			    pstUartObj->usRecvBytesCnt++;
   12a4c:	fdc42783          	lw	a5,-36(s0)
   12a50:	0127d783          	lhu	a5,18(a5)
   12a54:	00178793          	addi	a5,a5,1
   12a58:	01079713          	slli	a4,a5,0x10
   12a5c:	01075713          	srli	a4,a4,0x10
   12a60:	fdc42783          	lw	a5,-36(s0)
   12a64:	00e79923          	sh	a4,18(a5)
D:\CreateIC\01_CPIPC\riscv\RISCV_ENC_20220421\Firmware_true\app_prj\app_demo\Debug/../src/Bsp/Driver/hme_uart.c:684
			if (pstUartObj->usRecvBytesCnt < pstUartObj->usRecvDataSize)
   12a68:	1240006f          	j	12b8c <UartIntrRecvExc+0x24c>
D:\CreateIC\01_CPIPC\riscv\RISCV_ENC_20220421\Firmware_true\app_prj\app_demo\Debug/../src/Bsp/Driver/hme_uart.c:692
			}
			else
			{
				pstUartObj->pstCtrller->RBR;
   12a6c:	fdc42783          	lw	a5,-36(s0)
   12a70:	0207a783          	lw	a5,32(a5)
   12a74:	0207a783          	lw	a5,32(a5)
D:\CreateIC\01_CPIPC\riscv\RISCV_ENC_20220421\Firmware_true\app_prj\app_demo\Debug/../src/Bsp/Driver/hme_uart.c:684
			if (pstUartObj->usRecvBytesCnt < pstUartObj->usRecvDataSize)
   12a78:	1140006f          	j	12b8c <UartIntrRecvExc+0x24c>
D:\CreateIC\01_CPIPC\riscv\RISCV_ENC_20220421\Firmware_true\app_prj\app_demo\Debug/../src/Bsp/Driver/hme_uart.c:696
			}
		}
		else{
			if(wr_flag){
   12a7c:	000157b7          	lui	a5,0x15
   12a80:	5047c783          	lbu	a5,1284(a5) # 15504 <wr_flag>
   12a84:	08078063          	beqz	a5,12b04 <UartIntrRecvExc+0x1c4>
D:\CreateIC\01_CPIPC\riscv\RISCV_ENC_20220421\Firmware_true\app_prj\app_demo\Debug/../src/Bsp/Driver/hme_uart.c:697
			    uint8_t data = pstUartObj->pstCtrller->RBR;
   12a88:	fdc42783          	lw	a5,-36(s0)
   12a8c:	0207a783          	lw	a5,32(a5)
   12a90:	0207a783          	lw	a5,32(a5)
   12a94:	fef401a3          	sb	a5,-29(s0)
D:\CreateIC\01_CPIPC\riscv\RISCV_ENC_20220421\Firmware_true\app_prj\app_demo\Debug/../src/Bsp/Driver/hme_uart.c:698
			    printf("[WRITE] imgAddr: %d, data: %d\n", imgAddr, data);
   12a98:	000157b7          	lui	a5,0x15
   12a9c:	4ec7a783          	lw	a5,1260(a5) # 154ec <imgAddr>
   12aa0:	fe344703          	lbu	a4,-29(s0)
   12aa4:	00070613          	mv	a2,a4
   12aa8:	00078593          	mv	a1,a5
   12aac:	000157b7          	lui	a5,0x15
   12ab0:	15478513          	addi	a0,a5,340 # 15154 <__init_array_end+0xe8>
   12ab4:	208010ef          	jal	ra,13cbc <iprintf>
D:\CreateIC\01_CPIPC\riscv\RISCV_ENC_20220421\Firmware_true\app_prj\app_demo\Debug/../src/Bsp/Driver/hme_uart.c:699
			    WriteReg8(imgAddr, data);
   12ab8:	000157b7          	lui	a5,0x15
   12abc:	4ec7a783          	lw	a5,1260(a5) # 154ec <imgAddr>
   12ac0:	fe344703          	lbu	a4,-29(s0)
   12ac4:	00e78023          	sb	a4,0(a5)
D:\CreateIC\01_CPIPC\riscv\RISCV_ENC_20220421\Firmware_true\app_prj\app_demo\Debug/../src/Bsp/Driver/hme_uart.c:700
			    imgAddr++;
   12ac8:	000157b7          	lui	a5,0x15
   12acc:	4ec7a783          	lw	a5,1260(a5) # 154ec <imgAddr>
   12ad0:	00178713          	addi	a4,a5,1
   12ad4:	000157b7          	lui	a5,0x15
   12ad8:	4ee7a623          	sw	a4,1260(a5) # 154ec <imgAddr>
D:\CreateIC\01_CPIPC\riscv\RISCV_ENC_20220421\Firmware_true\app_prj\app_demo\Debug/../src/Bsp/Driver/hme_uart.c:702

			    if(imgAddr >= (uint8_t*)IMG_ADDR_RX + IMG_SIZE){
   12adc:	000157b7          	lui	a5,0x15
   12ae0:	4ec7a703          	lw	a4,1260(a5) # 154ec <imgAddr>
   12ae4:	003407b7          	lui	a5,0x340
   12ae8:	0af76263          	bltu	a4,a5,12b8c <UartIntrRecvExc+0x24c>
D:\CreateIC\01_CPIPC\riscv\RISCV_ENC_20220421\Firmware_true\app_prj\app_demo\Debug/../src/Bsp/Driver/hme_uart.c:703
			    	wr_flag = 0;
   12aec:	000157b7          	lui	a5,0x15
   12af0:	50078223          	sb	zero,1284(a5) # 15504 <wr_flag>
D:\CreateIC\01_CPIPC\riscv\RISCV_ENC_20220421\Firmware_true\app_prj\app_demo\Debug/../src/Bsp/Driver/hme_uart.c:704
			    	imgAddr = (uint8_t*)IMG_ADDR_RX;
   12af4:	000157b7          	lui	a5,0x15
   12af8:	00300737          	lui	a4,0x300
   12afc:	4ee7a623          	sw	a4,1260(a5) # 154ec <imgAddr>
D:\CreateIC\01_CPIPC\riscv\RISCV_ENC_20220421\Firmware_true\app_prj\app_demo\Debug/../src/Bsp/Driver/hme_uart.c:720
				imgAddrRd = (uint8_t*)IMG_ADDR_RX;
			}
		}
	}

}
   12b00:	08c0006f          	j	12b8c <UartIntrRecvExc+0x24c>
D:\CreateIC\01_CPIPC\riscv\RISCV_ENC_20220421\Firmware_true\app_prj\app_demo\Debug/../src/Bsp/Driver/hme_uart.c:708
			else if (rd_flag){
   12b04:	000157b7          	lui	a5,0x15
   12b08:	5057c783          	lbu	a5,1285(a5) # 15505 <rd_flag>
   12b0c:	08078063          	beqz	a5,12b8c <UartIntrRecvExc+0x24c>
D:\CreateIC\01_CPIPC\riscv\RISCV_ENC_20220421\Firmware_true\app_prj\app_demo\Debug/../src/Bsp/Driver/hme_uart.c:709
				for(int i=0; i<IMG_SIZE; i++){
   12b10:	fe042623          	sw	zero,-20(s0)
   12b14:	0540006f          	j	12b68 <UartIntrRecvExc+0x228>
D:\CreateIC\01_CPIPC\riscv\RISCV_ENC_20220421\Firmware_true\app_prj\app_demo\Debug/../src/Bsp/Driver/hme_uart.c:710 (discriminator 3)
				    uint8_t data = ReadReg8(imgAddrRd);
   12b18:	000157b7          	lui	a5,0x15
   12b1c:	4f07a783          	lw	a5,1264(a5) # 154f0 <imgAddrRd>
   12b20:	0007c783          	lbu	a5,0(a5)
   12b24:	fef40123          	sb	a5,-30(s0)
D:\CreateIC\01_CPIPC\riscv\RISCV_ENC_20220421\Firmware_true\app_prj\app_demo\Debug/../src/Bsp/Driver/hme_uart.c:711 (discriminator 3)
				    printf("[READ] imgAddrRd: %d, data: %d\n", imgAddrRd, data);
   12b28:	000157b7          	lui	a5,0x15
   12b2c:	4f07a783          	lw	a5,1264(a5) # 154f0 <imgAddrRd>
   12b30:	fe244703          	lbu	a4,-30(s0)
   12b34:	00070613          	mv	a2,a4
   12b38:	00078593          	mv	a1,a5
   12b3c:	000157b7          	lui	a5,0x15
   12b40:	17478513          	addi	a0,a5,372 # 15174 <__init_array_end+0x108>
   12b44:	178010ef          	jal	ra,13cbc <iprintf>
D:\CreateIC\01_CPIPC\riscv\RISCV_ENC_20220421\Firmware_true\app_prj\app_demo\Debug/../src/Bsp/Driver/hme_uart.c:712 (discriminator 3)
				    imgAddrRd++;
   12b48:	000157b7          	lui	a5,0x15
   12b4c:	4f07a783          	lw	a5,1264(a5) # 154f0 <imgAddrRd>
   12b50:	00178713          	addi	a4,a5,1
   12b54:	000157b7          	lui	a5,0x15
   12b58:	4ee7a823          	sw	a4,1264(a5) # 154f0 <imgAddrRd>
D:\CreateIC\01_CPIPC\riscv\RISCV_ENC_20220421\Firmware_true\app_prj\app_demo\Debug/../src/Bsp/Driver/hme_uart.c:709 (discriminator 3)
				for(int i=0; i<IMG_SIZE; i++){
   12b5c:	fec42783          	lw	a5,-20(s0)
   12b60:	00178793          	addi	a5,a5,1
   12b64:	fef42623          	sw	a5,-20(s0)
D:\CreateIC\01_CPIPC\riscv\RISCV_ENC_20220421\Firmware_true\app_prj\app_demo\Debug/../src/Bsp/Driver/hme_uart.c:709 (discriminator 1)
   12b68:	fec42703          	lw	a4,-20(s0)
   12b6c:	000407b7          	lui	a5,0x40
   12b70:	faf744e3          	blt	a4,a5,12b18 <UartIntrRecvExc+0x1d8>
D:\CreateIC\01_CPIPC\riscv\RISCV_ENC_20220421\Firmware_true\app_prj\app_demo\Debug/../src/Bsp/Driver/hme_uart.c:714
				rd_flag = 0;
   12b74:	000157b7          	lui	a5,0x15
   12b78:	500782a3          	sb	zero,1285(a5) # 15505 <rd_flag>
D:\CreateIC\01_CPIPC\riscv\RISCV_ENC_20220421\Firmware_true\app_prj\app_demo\Debug/../src/Bsp/Driver/hme_uart.c:715
				imgAddrRd = (uint8_t*)IMG_ADDR_RX;
   12b7c:	000157b7          	lui	a5,0x15
   12b80:	00300737          	lui	a4,0x300
   12b84:	4ee7a823          	sw	a4,1264(a5) # 154f0 <imgAddrRd>
D:\CreateIC\01_CPIPC\riscv\RISCV_ENC_20220421\Firmware_true\app_prj\app_demo\Debug/../src/Bsp/Driver/hme_uart.c:720
}
   12b88:	0040006f          	j	12b8c <UartIntrRecvExc+0x24c>
   12b8c:	00000013          	nop
   12b90:	02c12083          	lw	ra,44(sp)
   12b94:	02812403          	lw	s0,40(sp)
   12b98:	03010113          	addi	sp,sp,48
   12b9c:	00008067          	ret

00012ba0 <UartIntrRecvTimeOut>:
UartIntrRecvTimeOut():
D:\CreateIC\01_CPIPC\riscv\RISCV_ENC_20220421\Firmware_true\app_prj\app_demo\Debug/../src/Bsp/Driver/hme_uart.c:729
 * @param  pstUartObj：UART控制器对象
 * @retval 无
 * 注意：该接口预留，只作为测试处理
 *****************************************************************/
void UartIntrRecvTimeOut(PST_UART_ATTR pstUartObj)
{
   12ba0:	fe010113          	addi	sp,sp,-32
   12ba4:	00112e23          	sw	ra,28(sp)
   12ba8:	00812c23          	sw	s0,24(sp)
   12bac:	02010413          	addi	s0,sp,32
   12bb0:	fea42623          	sw	a0,-20(s0)
D:\CreateIC\01_CPIPC\riscv\RISCV_ENC_20220421\Firmware_true\app_prj\app_demo\Debug/../src/Bsp/Driver/hme_uart.c:730
	assert_param(NULL != pstUartObj);
   12bb4:	fec42783          	lw	a5,-20(s0)
   12bb8:	00079a63          	bnez	a5,12bcc <UartIntrRecvTimeOut+0x2c>
D:\CreateIC\01_CPIPC\riscv\RISCV_ENC_20220421\Firmware_true\app_prj\app_demo\Debug/../src/Bsp/Driver/hme_uart.c:730 (discriminator 1)
   12bbc:	2da00593          	li	a1,730
   12bc0:	000157b7          	lui	a5,0x15
   12bc4:	12078513          	addi	a0,a5,288 # 15120 <__init_array_end+0xb4>
   12bc8:	7b8000ef          	jal	ra,13380 <assert_failed>
D:\CreateIC\01_CPIPC\riscv\RISCV_ENC_20220421\Firmware_true\app_prj\app_demo\Debug/../src/Bsp/Driver/hme_uart.c:731
	assert_param(NULL != pstUartObj->pstCtrller);
   12bcc:	fec42783          	lw	a5,-20(s0)
   12bd0:	0207a783          	lw	a5,32(a5)
   12bd4:	00079a63          	bnez	a5,12be8 <UartIntrRecvTimeOut+0x48>
D:\CreateIC\01_CPIPC\riscv\RISCV_ENC_20220421\Firmware_true\app_prj\app_demo\Debug/../src/Bsp/Driver/hme_uart.c:731 (discriminator 1)
   12bd8:	2db00593          	li	a1,731
   12bdc:	000157b7          	lui	a5,0x15
   12be0:	12078513          	addi	a0,a5,288 # 15120 <__init_array_end+0xb4>
   12be4:	79c000ef          	jal	ra,13380 <assert_failed>
D:\CreateIC\01_CPIPC\riscv\RISCV_ENC_20220421\Firmware_true\app_prj\app_demo\Debug/../src/Bsp/Driver/hme_uart.c:732
	pstUartObj->pstCtrller->RBR;
   12be8:	fec42783          	lw	a5,-20(s0)
   12bec:	0207a783          	lw	a5,32(a5)
   12bf0:	0207a783          	lw	a5,32(a5)
D:\CreateIC\01_CPIPC\riscv\RISCV_ENC_20220421\Firmware_true\app_prj\app_demo\Debug/../src/Bsp/Driver/hme_uart.c:733
}
   12bf4:	00000013          	nop
   12bf8:	01c12083          	lw	ra,28(sp)
   12bfc:	01812403          	lw	s0,24(sp)
   12c00:	02010113          	addi	sp,sp,32
   12c04:	00008067          	ret

00012c08 <UartIntrSendExc>:
UartIntrSendExc():
D:\CreateIC\01_CPIPC\riscv\RISCV_ENC_20220421\Firmware_true\app_prj\app_demo\Debug/../src/Bsp/Driver/hme_uart.c:742
 * @param  pstUartObj：UART控制器对象
 * @retval 无
 * 注意：该接口预留，只作为测试处理
 *****************************************************************/
void UartIntrSendExc(PST_UART_ATTR pstUartObj)
{
   12c08:	fe010113          	addi	sp,sp,-32
   12c0c:	00112e23          	sw	ra,28(sp)
   12c10:	00812c23          	sw	s0,24(sp)
   12c14:	02010413          	addi	s0,sp,32
   12c18:	fea42623          	sw	a0,-20(s0)
D:\CreateIC\01_CPIPC\riscv\RISCV_ENC_20220421\Firmware_true\app_prj\app_demo\Debug/../src/Bsp/Driver/hme_uart.c:743
	UartIntrIDGet(pstUartObj);
   12c1c:	fec42503          	lw	a0,-20(s0)
   12c20:	b81ff0ef          	jal	ra,127a0 <UartIntrIDGet>
D:\CreateIC\01_CPIPC\riscv\RISCV_ENC_20220421\Firmware_true\app_prj\app_demo\Debug/../src/Bsp/Driver/hme_uart.c:744
}
   12c24:	00000013          	nop
   12c28:	01c12083          	lw	ra,28(sp)
   12c2c:	01812403          	lw	s0,24(sp)
   12c30:	02010113          	addi	sp,sp,32
   12c34:	00008067          	ret

00012c38 <UartIntrModemExc>:
UartIntrModemExc():
D:\CreateIC\01_CPIPC\riscv\RISCV_ENC_20220421\Firmware_true\app_prj\app_demo\Debug/../src/Bsp/Driver/hme_uart.c:753
 * @param  pstUartObj：UART控制器对象
 * @retval 无
 * 注意：该接口预留，只作为测试处理
 *****************************************************************/
void UartIntrModemExc(PST_UART_ATTR pstUartObj)
{
   12c38:	fe010113          	addi	sp,sp,-32
   12c3c:	00112e23          	sw	ra,28(sp)
   12c40:	00812c23          	sw	s0,24(sp)
   12c44:	02010413          	addi	s0,sp,32
   12c48:	fea42623          	sw	a0,-20(s0)
D:\CreateIC\01_CPIPC\riscv\RISCV_ENC_20220421\Firmware_true\app_prj\app_demo\Debug/../src/Bsp/Driver/hme_uart.c:754
	UartModemStatusGet(pstUartObj);
   12c4c:	fec42503          	lw	a0,-20(s0)
   12c50:	945ff0ef          	jal	ra,12594 <UartModemStatusGet>
D:\CreateIC\01_CPIPC\riscv\RISCV_ENC_20220421\Firmware_true\app_prj\app_demo\Debug/../src/Bsp/Driver/hme_uart.c:755
}
   12c54:	00000013          	nop
   12c58:	01c12083          	lw	ra,28(sp)
   12c5c:	01812403          	lw	s0,24(sp)
   12c60:	02010113          	addi	sp,sp,32
   12c64:	00008067          	ret

00012c68 <DelayUs>:
DelayUs():
D:\CreateIC\01_CPIPC\riscv\RISCV_ENC_20220421\Firmware_true\app_prj\app_demo\Debug/../src/Bsp/Driver/system.c:30
		ulWaitCnt--;
	}
}

void DelayUs (uint32_t ulDelayUs)
{
   12c68:	fd010113          	addi	sp,sp,-48
   12c6c:	02812623          	sw	s0,44(sp)
   12c70:	03010413          	addi	s0,sp,48
   12c74:	fca42e23          	sw	a0,-36(s0)
D:\CreateIC\01_CPIPC\riscv\RISCV_ENC_20220421\Firmware_true\app_prj\app_demo\Debug/../src/Bsp/Driver/system.c:31
	uint32_t ulWaitCnt = (ulDelayUs * 1000) / (CLK_CYC * 20);
   12c78:	fdc42703          	lw	a4,-36(s0)
   12c7c:	3e800793          	li	a5,1000
   12c80:	02f70733          	mul	a4,a4,a5
   12c84:	0f000793          	li	a5,240
   12c88:	02f757b3          	divu	a5,a4,a5
   12c8c:	fef42623          	sw	a5,-20(s0)
D:\CreateIC\01_CPIPC\riscv\RISCV_ENC_20220421\Firmware_true\app_prj\app_demo\Debug/../src/Bsp/Driver/system.c:32
	while (ulWaitCnt > 0)
   12c90:	0100006f          	j	12ca0 <DelayUs+0x38>
D:\CreateIC\01_CPIPC\riscv\RISCV_ENC_20220421\Firmware_true\app_prj\app_demo\Debug/../src/Bsp/Driver/system.c:34
	{
		ulWaitCnt--;
   12c94:	fec42783          	lw	a5,-20(s0)
   12c98:	fff78793          	addi	a5,a5,-1
   12c9c:	fef42623          	sw	a5,-20(s0)
D:\CreateIC\01_CPIPC\riscv\RISCV_ENC_20220421\Firmware_true\app_prj\app_demo\Debug/../src/Bsp/Driver/system.c:32
	while (ulWaitCnt > 0)
   12ca0:	fec42783          	lw	a5,-20(s0)
   12ca4:	fe0798e3          	bnez	a5,12c94 <DelayUs+0x2c>
D:\CreateIC\01_CPIPC\riscv\RISCV_ENC_20220421\Firmware_true\app_prj\app_demo\Debug/../src/Bsp/Driver/system.c:36
	}
}
   12ca8:	00000013          	nop
   12cac:	02c12403          	lw	s0,44(sp)
   12cb0:	03010113          	addi	sp,sp,48
   12cb4:	00008067          	ret

00012cb8 <trap_entry>:
trap_entry():
D:\CreateIC\01_CPIPC\riscv\RISCV_ENC_20220421\Firmware_true\app_prj\app_demo\Debug/../src/Bsp/Core/trap.S:4
.global  trap_entry
.align(2) //mtvec require 32 bits allignement
trap_entry:
  addi sp,sp, -32*4
   12cb8:	f8010113          	addi	sp,sp,-128
D:\CreateIC\01_CPIPC\riscv\RISCV_ENC_20220421\Firmware_true\app_prj\app_demo\Debug/../src/Bsp/Core/trap.S:5
  sw     ra,   0 * 4(sp)
   12cbc:	00112023          	sw	ra,0(sp)
D:\CreateIC\01_CPIPC\riscv\RISCV_ENC_20220421\Firmware_true\app_prj\app_demo\Debug/../src/Bsp/Core/trap.S:6
  sw     t0,   4 * 4(sp)
   12cc0:	00512823          	sw	t0,16(sp)
D:\CreateIC\01_CPIPC\riscv\RISCV_ENC_20220421\Firmware_true\app_prj\app_demo\Debug/../src/Bsp/Core/trap.S:7
  sw     t1,   5 * 4(sp)
   12cc4:	00612a23          	sw	t1,20(sp)
D:\CreateIC\01_CPIPC\riscv\RISCV_ENC_20220421\Firmware_true\app_prj\app_demo\Debug/../src/Bsp/Core/trap.S:8
  sw     t2,   6 * 4(sp)
   12cc8:	00712c23          	sw	t2,24(sp)
D:\CreateIC\01_CPIPC\riscv\RISCV_ENC_20220421\Firmware_true\app_prj\app_demo\Debug/../src/Bsp/Core/trap.S:9
  sw     s0,   7 * 4(sp)
   12ccc:	00812e23          	sw	s0,28(sp)
D:\CreateIC\01_CPIPC\riscv\RISCV_ENC_20220421\Firmware_true\app_prj\app_demo\Debug/../src/Bsp/Core/trap.S:10
  sw     s1,   8 * 4(sp)
   12cd0:	02912023          	sw	s1,32(sp)
D:\CreateIC\01_CPIPC\riscv\RISCV_ENC_20220421\Firmware_true\app_prj\app_demo\Debug/../src/Bsp/Core/trap.S:11
  sw     a0,   9 * 4(sp)
   12cd4:	02a12223          	sw	a0,36(sp)
D:\CreateIC\01_CPIPC\riscv\RISCV_ENC_20220421\Firmware_true\app_prj\app_demo\Debug/../src/Bsp/Core/trap.S:12
  sw     a1,  10 * 4(sp)
   12cd8:	02b12423          	sw	a1,40(sp)
D:\CreateIC\01_CPIPC\riscv\RISCV_ENC_20220421\Firmware_true\app_prj\app_demo\Debug/../src/Bsp/Core/trap.S:13
  sw     a2,  11 * 4(sp)
   12cdc:	02c12623          	sw	a2,44(sp)
D:\CreateIC\01_CPIPC\riscv\RISCV_ENC_20220421\Firmware_true\app_prj\app_demo\Debug/../src/Bsp/Core/trap.S:14
  sw     a3,  12 * 4(sp)
   12ce0:	02d12823          	sw	a3,48(sp)
D:\CreateIC\01_CPIPC\riscv\RISCV_ENC_20220421\Firmware_true\app_prj\app_demo\Debug/../src/Bsp/Core/trap.S:15
  sw     a4,  13 * 4(sp)
   12ce4:	02e12a23          	sw	a4,52(sp)
D:\CreateIC\01_CPIPC\riscv\RISCV_ENC_20220421\Firmware_true\app_prj\app_demo\Debug/../src/Bsp/Core/trap.S:16
  sw     a5,  14 * 4(sp)
   12ce8:	02f12c23          	sw	a5,56(sp)
D:\CreateIC\01_CPIPC\riscv\RISCV_ENC_20220421\Firmware_true\app_prj\app_demo\Debug/../src/Bsp/Core/trap.S:17
  sw     a6,  15 * 4(sp)
   12cec:	03012e23          	sw	a6,60(sp)
D:\CreateIC\01_CPIPC\riscv\RISCV_ENC_20220421\Firmware_true\app_prj\app_demo\Debug/../src/Bsp/Core/trap.S:18
  sw     a7,  16 * 4(sp)
   12cf0:	05112023          	sw	a7,64(sp)
D:\CreateIC\01_CPIPC\riscv\RISCV_ENC_20220421\Firmware_true\app_prj\app_demo\Debug/../src/Bsp/Core/trap.S:19
  sw     s2,  17 * 4(sp)
   12cf4:	05212223          	sw	s2,68(sp)
D:\CreateIC\01_CPIPC\riscv\RISCV_ENC_20220421\Firmware_true\app_prj\app_demo\Debug/../src/Bsp/Core/trap.S:20
  sw     s3,  18 * 4(sp)
   12cf8:	05312423          	sw	s3,72(sp)
D:\CreateIC\01_CPIPC\riscv\RISCV_ENC_20220421\Firmware_true\app_prj\app_demo\Debug/../src/Bsp/Core/trap.S:21
  sw     s4,  19 * 4(sp)
   12cfc:	05412623          	sw	s4,76(sp)
D:\CreateIC\01_CPIPC\riscv\RISCV_ENC_20220421\Firmware_true\app_prj\app_demo\Debug/../src/Bsp/Core/trap.S:22
  sw     s5,  20 * 4(sp)
   12d00:	05512823          	sw	s5,80(sp)
D:\CreateIC\01_CPIPC\riscv\RISCV_ENC_20220421\Firmware_true\app_prj\app_demo\Debug/../src/Bsp/Core/trap.S:23
  sw     s6,  21 * 4(sp)
   12d04:	05612a23          	sw	s6,84(sp)
D:\CreateIC\01_CPIPC\riscv\RISCV_ENC_20220421\Firmware_true\app_prj\app_demo\Debug/../src/Bsp/Core/trap.S:24
  sw     s7,  22 * 4(sp)
   12d08:	05712c23          	sw	s7,88(sp)
D:\CreateIC\01_CPIPC\riscv\RISCV_ENC_20220421\Firmware_true\app_prj\app_demo\Debug/../src/Bsp/Core/trap.S:25
  sw     s8,  23 * 4(sp)
   12d0c:	05812e23          	sw	s8,92(sp)
D:\CreateIC\01_CPIPC\riscv\RISCV_ENC_20220421\Firmware_true\app_prj\app_demo\Debug/../src/Bsp/Core/trap.S:26
  sw     s9,  24 * 4(sp)
   12d10:	07912023          	sw	s9,96(sp)
D:\CreateIC\01_CPIPC\riscv\RISCV_ENC_20220421\Firmware_true\app_prj\app_demo\Debug/../src/Bsp/Core/trap.S:27
  sw     s10, 25 * 4(sp)
   12d14:	07a12223          	sw	s10,100(sp)
D:\CreateIC\01_CPIPC\riscv\RISCV_ENC_20220421\Firmware_true\app_prj\app_demo\Debug/../src/Bsp/Core/trap.S:28
  sw     s11, 26 * 4(sp)
   12d18:	07b12423          	sw	s11,104(sp)
D:\CreateIC\01_CPIPC\riscv\RISCV_ENC_20220421\Firmware_true\app_prj\app_demo\Debug/../src/Bsp/Core/trap.S:29
  sw     t3,  27 * 4(sp)
   12d1c:	07c12623          	sw	t3,108(sp)
D:\CreateIC\01_CPIPC\riscv\RISCV_ENC_20220421\Firmware_true\app_prj\app_demo\Debug/../src/Bsp/Core/trap.S:30
  sw     t4,  28 * 4(sp)
   12d20:	07d12823          	sw	t4,112(sp)
D:\CreateIC\01_CPIPC\riscv\RISCV_ENC_20220421\Firmware_true\app_prj\app_demo\Debug/../src/Bsp/Core/trap.S:31
  sw     t5,  29 * 4(sp)
   12d24:	07e12a23          	sw	t5,116(sp)
D:\CreateIC\01_CPIPC\riscv\RISCV_ENC_20220421\Firmware_true\app_prj\app_demo\Debug/../src/Bsp/Core/trap.S:32
  sw     t6,  30 * 4(sp)
   12d28:	07f12c23          	sw	t6,120(sp)
D:\CreateIC\01_CPIPC\riscv\RISCV_ENC_20220421\Firmware_true\app_prj\app_demo\Debug/../src/Bsp/Core/trap.S:34

  csrr   a0,  mcause
   12d2c:	34202573          	csrr	a0,mcause
D:\CreateIC\01_CPIPC\riscv\RISCV_ENC_20220421\Firmware_true\app_prj\app_demo\Debug/../src/Bsp/Core/trap.S:35
  csrr   a1,  mepc
   12d30:	341025f3          	csrr	a1,mepc
D:\CreateIC\01_CPIPC\riscv\RISCV_ENC_20220421\Firmware_true\app_prj\app_demo\Debug/../src/Bsp/Core/trap.S:36
  mv     a2,  sp
   12d34:	00010613          	mv	a2,sp
D:\CreateIC\01_CPIPC\riscv\RISCV_ENC_20220421\Firmware_true\app_prj\app_demo\Debug/../src/Bsp/Core/trap.S:38

  call trap
   12d38:	228000ef          	jal	ra,12f60 <trap>
D:\CreateIC\01_CPIPC\riscv\RISCV_ENC_20220421\Firmware_true\app_prj\app_demo\Debug/../src/Bsp/Core/trap.S:40

  lw     ra,   0 * 4(sp)
   12d3c:	00012083          	lw	ra,0(sp)
D:\CreateIC\01_CPIPC\riscv\RISCV_ENC_20220421\Firmware_true\app_prj\app_demo\Debug/../src/Bsp/Core/trap.S:41
  lw     t0,   4 * 4(sp)
   12d40:	01012283          	lw	t0,16(sp)
D:\CreateIC\01_CPIPC\riscv\RISCV_ENC_20220421\Firmware_true\app_prj\app_demo\Debug/../src/Bsp/Core/trap.S:42
  lw     t1,   5 * 4(sp)
   12d44:	01412303          	lw	t1,20(sp)
D:\CreateIC\01_CPIPC\riscv\RISCV_ENC_20220421\Firmware_true\app_prj\app_demo\Debug/../src/Bsp/Core/trap.S:43
  lw     t2,   6 * 4(sp)
   12d48:	01812383          	lw	t2,24(sp)
D:\CreateIC\01_CPIPC\riscv\RISCV_ENC_20220421\Firmware_true\app_prj\app_demo\Debug/../src/Bsp/Core/trap.S:44
  lw     s0,   7 * 4(sp)
   12d4c:	01c12403          	lw	s0,28(sp)
D:\CreateIC\01_CPIPC\riscv\RISCV_ENC_20220421\Firmware_true\app_prj\app_demo\Debug/../src/Bsp/Core/trap.S:45
  lw     s1,   8 * 4(sp)
   12d50:	02012483          	lw	s1,32(sp)
D:\CreateIC\01_CPIPC\riscv\RISCV_ENC_20220421\Firmware_true\app_prj\app_demo\Debug/../src/Bsp/Core/trap.S:46
  lw     a0,   9 * 4(sp)
   12d54:	02412503          	lw	a0,36(sp)
D:\CreateIC\01_CPIPC\riscv\RISCV_ENC_20220421\Firmware_true\app_prj\app_demo\Debug/../src/Bsp/Core/trap.S:47
  lw     a1,  10 * 4(sp)
   12d58:	02812583          	lw	a1,40(sp)
D:\CreateIC\01_CPIPC\riscv\RISCV_ENC_20220421\Firmware_true\app_prj\app_demo\Debug/../src/Bsp/Core/trap.S:48
  lw     a2,  11 * 4(sp)
   12d5c:	02c12603          	lw	a2,44(sp)
D:\CreateIC\01_CPIPC\riscv\RISCV_ENC_20220421\Firmware_true\app_prj\app_demo\Debug/../src/Bsp/Core/trap.S:49
  lw     a3,  12 * 4(sp)
   12d60:	03012683          	lw	a3,48(sp)
D:\CreateIC\01_CPIPC\riscv\RISCV_ENC_20220421\Firmware_true\app_prj\app_demo\Debug/../src/Bsp/Core/trap.S:50
  lw     a4,  13 * 4(sp)
   12d64:	03412703          	lw	a4,52(sp)
D:\CreateIC\01_CPIPC\riscv\RISCV_ENC_20220421\Firmware_true\app_prj\app_demo\Debug/../src/Bsp/Core/trap.S:51
  lw     a5,  14 * 4(sp)
   12d68:	03812783          	lw	a5,56(sp)
D:\CreateIC\01_CPIPC\riscv\RISCV_ENC_20220421\Firmware_true\app_prj\app_demo\Debug/../src/Bsp/Core/trap.S:52
  lw     a6,  15 * 4(sp)
   12d6c:	03c12803          	lw	a6,60(sp)
D:\CreateIC\01_CPIPC\riscv\RISCV_ENC_20220421\Firmware_true\app_prj\app_demo\Debug/../src/Bsp/Core/trap.S:53
  lw     a7,  16 * 4(sp)
   12d70:	04012883          	lw	a7,64(sp)
D:\CreateIC\01_CPIPC\riscv\RISCV_ENC_20220421\Firmware_true\app_prj\app_demo\Debug/../src/Bsp/Core/trap.S:54
  lw     s2,  17 * 4(sp)
   12d74:	04412903          	lw	s2,68(sp)
D:\CreateIC\01_CPIPC\riscv\RISCV_ENC_20220421\Firmware_true\app_prj\app_demo\Debug/../src/Bsp/Core/trap.S:55
  lw     s3,  18 * 4(sp)
   12d78:	04812983          	lw	s3,72(sp)
D:\CreateIC\01_CPIPC\riscv\RISCV_ENC_20220421\Firmware_true\app_prj\app_demo\Debug/../src/Bsp/Core/trap.S:56
  lw     s4,  19 * 4(sp)
   12d7c:	04c12a03          	lw	s4,76(sp)
D:\CreateIC\01_CPIPC\riscv\RISCV_ENC_20220421\Firmware_true\app_prj\app_demo\Debug/../src/Bsp/Core/trap.S:57
  lw     s5,  20 * 4(sp)
   12d80:	05012a83          	lw	s5,80(sp)
D:\CreateIC\01_CPIPC\riscv\RISCV_ENC_20220421\Firmware_true\app_prj\app_demo\Debug/../src/Bsp/Core/trap.S:58
  lw     s6,  21 * 4(sp)
   12d84:	05412b03          	lw	s6,84(sp)
D:\CreateIC\01_CPIPC\riscv\RISCV_ENC_20220421\Firmware_true\app_prj\app_demo\Debug/../src/Bsp/Core/trap.S:59
  lw     s7,  22 * 4(sp)
   12d88:	05812b83          	lw	s7,88(sp)
D:\CreateIC\01_CPIPC\riscv\RISCV_ENC_20220421\Firmware_true\app_prj\app_demo\Debug/../src/Bsp/Core/trap.S:60
  lw     s8,  23 * 4(sp)
   12d8c:	05c12c03          	lw	s8,92(sp)
D:\CreateIC\01_CPIPC\riscv\RISCV_ENC_20220421\Firmware_true\app_prj\app_demo\Debug/../src/Bsp/Core/trap.S:61
  lw     s9,  24 * 4(sp)
   12d90:	06012c83          	lw	s9,96(sp)
D:\CreateIC\01_CPIPC\riscv\RISCV_ENC_20220421\Firmware_true\app_prj\app_demo\Debug/../src/Bsp/Core/trap.S:62
  lw     s10, 25 * 4(sp)
   12d94:	06412d03          	lw	s10,100(sp)
D:\CreateIC\01_CPIPC\riscv\RISCV_ENC_20220421\Firmware_true\app_prj\app_demo\Debug/../src/Bsp/Core/trap.S:63
  lw     s11, 26 * 4(sp)
   12d98:	06812d83          	lw	s11,104(sp)
D:\CreateIC\01_CPIPC\riscv\RISCV_ENC_20220421\Firmware_true\app_prj\app_demo\Debug/../src/Bsp/Core/trap.S:64
  lw     t3,  27 * 4(sp)
   12d9c:	06c12e03          	lw	t3,108(sp)
D:\CreateIC\01_CPIPC\riscv\RISCV_ENC_20220421\Firmware_true\app_prj\app_demo\Debug/../src/Bsp/Core/trap.S:65
  lw     t4,  28 * 4(sp)
   12da0:	07012e83          	lw	t4,112(sp)
D:\CreateIC\01_CPIPC\riscv\RISCV_ENC_20220421\Firmware_true\app_prj\app_demo\Debug/../src/Bsp/Core/trap.S:66
  lw     t5,  29 * 4(sp)
   12da4:	07412f03          	lw	t5,116(sp)
D:\CreateIC\01_CPIPC\riscv\RISCV_ENC_20220421\Firmware_true\app_prj\app_demo\Debug/../src/Bsp/Core/trap.S:67
  lw     t6,  30 * 4(sp)
   12da8:	07812f83          	lw	t6,120(sp)
D:\CreateIC\01_CPIPC\riscv\RISCV_ENC_20220421\Firmware_true\app_prj\app_demo\Debug/../src/Bsp/Core/trap.S:69

  addi sp,sp, 32*4
   12dac:	08010113          	addi	sp,sp,128
D:\CreateIC\01_CPIPC\riscv\RISCV_ENC_20220421\Firmware_true\app_prj\app_demo\Debug/../src/Bsp/Core/trap.S:70
  mret
   12db0:	30200073          	mret
D:\CreateIC\01_CPIPC\riscv\RISCV_ENC_20220421\Firmware_true\app_prj\app_demo\Debug/../src/Bsp/Core/trap.S:75

   .weak trap
   .align(2)
trap:
 1:	j 1b
   12db4:	0000006f          	j	12db4 <trap_entry+0xfc>

00012db8 <SoftwareInterruptExcute>:
SoftwareInterruptExcute():
D:\CreateIC\01_CPIPC\riscv\RISCV_ENC_20220421\Firmware_true\app_prj\app_demo\Debug/../src/Bsp/Core/trap_handle.c:40
 * @brief  软件中断执行接口
 * @param  无
 * @retval 无
*****************************************************************/
void SoftwareInterruptExcute(uint32_t sp[])
{
   12db8:	fd010113          	addi	sp,sp,-48
   12dbc:	02112623          	sw	ra,44(sp)
   12dc0:	02812423          	sw	s0,40(sp)
   12dc4:	03010413          	addi	s0,sp,48
   12dc8:	fca42e23          	sw	a0,-36(s0)
D:\CreateIC\01_CPIPC\riscv\RISCV_ENC_20220421\Firmware_true\app_prj\app_demo\Debug/../src/Bsp/Core/trap_handle.c:43
	extern void Software_IRQHandler();

	uint32_t* pulSoftAddr = (uint32_t*)SOFT_INTR_BASE_ADDR;
   12dcc:	f80067b7          	lui	a5,0xf8006
   12dd0:	fef42623          	sw	a5,-20(s0)
D:\CreateIC\01_CPIPC\riscv\RISCV_ENC_20220421\Firmware_true\app_prj\app_demo\Debug/../src/Bsp/Core/trap_handle.c:44
	*pulSoftAddr = 0;
   12dd4:	fec42783          	lw	a5,-20(s0)
   12dd8:	0007a023          	sw	zero,0(a5) # f8006000 <__freertos_irq_stack_top+0xf7fc79f0>
D:\CreateIC\01_CPIPC\riscv\RISCV_ENC_20220421\Firmware_true\app_prj\app_demo\Debug/../src/Bsp/Core/trap_handle.c:46

     printf("Software Interrput....\n");
   12ddc:	000157b7          	lui	a5,0x15
   12de0:	1c878513          	addi	a0,a5,456 # 151c8 <__init_array_end+0x15c>
   12de4:	0b4010ef          	jal	ra,13e98 <puts>
D:\CreateIC\01_CPIPC\riscv\RISCV_ENC_20220421\Firmware_true\app_prj\app_demo\Debug/../src/Bsp/Core/trap_handle.c:47
}
   12de8:	00000013          	nop
   12dec:	02c12083          	lw	ra,44(sp)
   12df0:	02812403          	lw	s0,40(sp)
   12df4:	03010113          	addi	sp,sp,48
   12df8:	00008067          	ret

00012dfc <TimerInterruptExcute>:
TimerInterruptExcute():
D:\CreateIC\01_CPIPC\riscv\RISCV_ENC_20220421\Firmware_true\app_prj\app_demo\Debug/../src/Bsp/Core/trap_handle.c:55
 * @brief  核定时器中断执行接口
 * @param  无
 * @retval 无
*****************************************************************/
void TimerInterruptExcute()
{
   12dfc:	fc010113          	addi	sp,sp,-64
   12e00:	02112e23          	sw	ra,60(sp)
   12e04:	02812c23          	sw	s0,56(sp)
   12e08:	03212a23          	sw	s2,52(sp)
   12e0c:	03312823          	sw	s3,48(sp)
   12e10:	03412623          	sw	s4,44(sp)
   12e14:	03512423          	sw	s5,40(sp)
   12e18:	03612223          	sw	s6,36(sp)
   12e1c:	03712023          	sw	s7,32(sp)
   12e20:	04010413          	addi	s0,sp,64
D:\CreateIC\01_CPIPC\riscv\RISCV_ENC_20220421\Firmware_true\app_prj\app_demo\Debug/../src/Bsp/Core/trap_handle.c:56
	PST_MACH_TIME_RegDef pstMachTimer = DEV_MACH_TIMER;
   12e24:	f80017b7          	lui	a5,0xf8001
   12e28:	fcf42e23          	sw	a5,-36(s0)
D:\CreateIC\01_CPIPC\riscv\RISCV_ENC_20220421\Firmware_true\app_prj\app_demo\Debug/../src/Bsp/Core/trap_handle.c:58

	uint32_t ulCurTimerL = 0;
   12e2c:	fc042c23          	sw	zero,-40(s0)
D:\CreateIC\01_CPIPC\riscv\RISCV_ENC_20220421\Firmware_true\app_prj\app_demo\Debug/../src/Bsp/Core/trap_handle.c:59
	uint32_t ulCurTimerH = 0;
   12e30:	fc042a23          	sw	zero,-44(s0)
D:\CreateIC\01_CPIPC\riscv\RISCV_ENC_20220421\Firmware_true\app_prj\app_demo\Debug/../src/Bsp/Core/trap_handle.c:60
	uint64_t ulCurTimer = 0;
   12e34:	00000793          	li	a5,0
   12e38:	00000813          	li	a6,0
   12e3c:	fcf42423          	sw	a5,-56(s0)
   12e40:	fd042623          	sw	a6,-52(s0)
D:\CreateIC\01_CPIPC\riscv\RISCV_ENC_20220421\Firmware_true\app_prj\app_demo\Debug/../src/Bsp/Core/trap_handle.c:62

    ulCurTimerL = MachineTimerCtrllerCurTimeLGet(pstMachTimer);
   12e44:	fdc42503          	lw	a0,-36(s0)
   12e48:	fb9fe0ef          	jal	ra,11e00 <MachineTimerCtrllerCurTimeLGet>
   12e4c:	fca42c23          	sw	a0,-40(s0)
D:\CreateIC\01_CPIPC\riscv\RISCV_ENC_20220421\Firmware_true\app_prj\app_demo\Debug/../src/Bsp/Core/trap_handle.c:63
    ulCurTimerH = MachineTimerCtrllerCurTimeHGet(pstMachTimer);
   12e50:	fdc42503          	lw	a0,-36(s0)
   12e54:	ff5fe0ef          	jal	ra,11e48 <MachineTimerCtrllerCurTimeHGet>
   12e58:	fca42a23          	sw	a0,-44(s0)
D:\CreateIC\01_CPIPC\riscv\RISCV_ENC_20220421\Firmware_true\app_prj\app_demo\Debug/../src/Bsp/Core/trap_handle.c:64
    ulCurTimer = (((uint64_t)ulCurTimerH << 32) | ulCurTimerL);
   12e5c:	fd442783          	lw	a5,-44(s0)
   12e60:	00078b13          	mv	s6,a5
   12e64:	00000b93          	li	s7,0
   12e68:	000b1993          	slli	s3,s6,0x0
   12e6c:	00000913          	li	s2,0
   12e70:	fd842783          	lw	a5,-40(s0)
   12e74:	00078a13          	mv	s4,a5
   12e78:	00000a93          	li	s5,0
   12e7c:	014967b3          	or	a5,s2,s4
   12e80:	fcf42423          	sw	a5,-56(s0)
   12e84:	0159e7b3          	or	a5,s3,s5
   12e88:	fcf42623          	sw	a5,-52(s0)
D:\CreateIC\01_CPIPC\riscv\RISCV_ENC_20220421\Firmware_true\app_prj\app_demo\Debug/../src/Bsp/Core/trap_handle.c:65
    ulCurTimer = ulCurTimer + DEF_TIMER_PERIOD;
   12e8c:	fc842683          	lw	a3,-56(s0)
   12e90:	fcc42703          	lw	a4,-52(s0)
   12e94:	027bd5b7          	lui	a1,0x27bd
   12e98:	86a58593          	addi	a1,a1,-1942 # 27bc86a <__freertos_irq_stack_top+0x277e25a>
   12e9c:	00000613          	li	a2,0
   12ea0:	00b687b3          	add	a5,a3,a1
   12ea4:	00078513          	mv	a0,a5
   12ea8:	00d53533          	sltu	a0,a0,a3
   12eac:	00c70833          	add	a6,a4,a2
   12eb0:	01050733          	add	a4,a0,a6
   12eb4:	00070813          	mv	a6,a4
   12eb8:	fcf42423          	sw	a5,-56(s0)
   12ebc:	fd042623          	sw	a6,-52(s0)
D:\CreateIC\01_CPIPC\riscv\RISCV_ENC_20220421\Firmware_true\app_prj\app_demo\Debug/../src/Bsp/Core/trap_handle.c:66
    MachineTimerCtrllerCmpSet(pstMachTimer, ulCurTimer);
   12ec0:	fc842583          	lw	a1,-56(s0)
   12ec4:	fcc42603          	lw	a2,-52(s0)
   12ec8:	fdc42503          	lw	a0,-36(s0)
   12ecc:	fc5fe0ef          	jal	ra,11e90 <MachineTimerCtrllerCmpSet>
D:\CreateIC\01_CPIPC\riscv\RISCV_ENC_20220421\Firmware_true\app_prj\app_demo\Debug/../src/Bsp/Core/trap_handle.c:67
}
   12ed0:	00000013          	nop
   12ed4:	03c12083          	lw	ra,60(sp)
   12ed8:	03812403          	lw	s0,56(sp)
   12edc:	03412903          	lw	s2,52(sp)
   12ee0:	03012983          	lw	s3,48(sp)
   12ee4:	02c12a03          	lw	s4,44(sp)
   12ee8:	02812a83          	lw	s5,40(sp)
   12eec:	02412b03          	lw	s6,36(sp)
   12ef0:	02012b83          	lw	s7,32(sp)
   12ef4:	04010113          	addi	sp,sp,64
   12ef8:	00008067          	ret

00012efc <ExceptionHandleExcute>:
ExceptionHandleExcute():
D:\CreateIC\01_CPIPC\riscv\RISCV_ENC_20220421\Firmware_true\app_prj\app_demo\Debug/../src/Bsp/Core/trap_handle.c:75
 * @brief  异常发生时执行接口
 * @param  无
 * @retval 无
*****************************************************************/
void ExceptionHandleExcute()
{
   12efc:	ff010113          	addi	sp,sp,-16
   12f00:	00112623          	sw	ra,12(sp)
   12f04:	00812423          	sw	s0,8(sp)
   12f08:	01010413          	addi	s0,sp,16
D:\CreateIC\01_CPIPC\riscv\RISCV_ENC_20220421\Firmware_true\app_prj\app_demo\Debug/../src/Bsp/Core/trap_handle.c:76
	printf ("/n __Exception Occured: Fatal Fault!/n");
   12f0c:	000157b7          	lui	a5,0x15
   12f10:	1e078513          	addi	a0,a5,480 # 151e0 <__init_array_end+0x174>
   12f14:	5a9000ef          	jal	ra,13cbc <iprintf>
D:\CreateIC\01_CPIPC\riscv\RISCV_ENC_20220421\Firmware_true\app_prj\app_demo\Debug/../src/Bsp/Core/trap_handle.c:77 (discriminator 1)
	while (1);
   12f18:	0000006f          	j	12f18 <ExceptionHandleExcute+0x1c>

00012f1c <TrapInit>:
TrapInit():
D:\CreateIC\01_CPIPC\riscv\RISCV_ENC_20220421\Firmware_true\app_prj\app_demo\Debug/../src/Bsp/Core/trap_handle.c:86
 * @brief  系统中断初始化
 * @param  无
 * @retval 无
*****************************************************************/
void TrapInit()
{
   12f1c:	fe010113          	addi	sp,sp,-32
   12f20:	00812e23          	sw	s0,28(sp)
   12f24:	02010413          	addi	s0,sp,32
D:\CreateIC\01_CPIPC\riscv\RISCV_ENC_20220421\Firmware_true\app_prj\app_demo\Debug/../src/Bsp/Core/trap_handle.c:87
    csr_set(mie, MIE_MEIE | MIE_MSIE);             //Enable machine timer and external interrupts
   12f28:	000017b7          	lui	a5,0x1
   12f2c:	80878793          	addi	a5,a5,-2040 # 808 <__stack_size-0xf7f8>
   12f30:	fef42623          	sw	a5,-20(s0)
   12f34:	fec42783          	lw	a5,-20(s0)
   12f38:	3047a073          	csrs	mie,a5
D:\CreateIC\01_CPIPC\riscv\RISCV_ENC_20220421\Firmware_true\app_prj\app_demo\Debug/../src/Bsp/Core/trap_handle.c:88
    csr_write(mstatus, MSTATUS_MPP | MSTATUS_MIE);
   12f3c:	000027b7          	lui	a5,0x2
   12f40:	80878793          	addi	a5,a5,-2040 # 1808 <__stack_size-0xe7f8>
   12f44:	fef42423          	sw	a5,-24(s0)
   12f48:	fe842783          	lw	a5,-24(s0)
   12f4c:	30079073          	csrw	mstatus,a5
D:\CreateIC\01_CPIPC\riscv\RISCV_ENC_20220421\Firmware_true\app_prj\app_demo\Debug/../src/Bsp/Core/trap_handle.c:89
}
   12f50:	00000013          	nop
   12f54:	01c12403          	lw	s0,28(sp)
   12f58:	02010113          	addi	sp,sp,32
   12f5c:	00008067          	ret

00012f60 <trap>:
trap():
D:\CreateIC\01_CPIPC\riscv\RISCV_ENC_20220421\Firmware_true\app_prj\app_demo\Debug/../src/Bsp/Core/trap_handle.c:97
 * @brief  系统异常调度接口
 * @param  无
 * @retval 无
*****************************************************************/
void trap(int32_t mcause, uint32_t mepc, uint32_t sp[])
{
   12f60:	fd010113          	addi	sp,sp,-48
   12f64:	02112623          	sw	ra,44(sp)
   12f68:	02812423          	sw	s0,40(sp)
   12f6c:	03010413          	addi	s0,sp,48
   12f70:	fca42e23          	sw	a0,-36(s0)
   12f74:	fcb42c23          	sw	a1,-40(s0)
   12f78:	fcc42a23          	sw	a2,-44(s0)
D:\CreateIC\01_CPIPC\riscv\RISCV_ENC_20220421\Firmware_true\app_prj\app_demo\Debug/../src/Bsp/Core/trap_handle.c:98
	int32_t interrupt = mcause < 0;               //Interrupt if true, exception if false
   12f7c:	fdc42783          	lw	a5,-36(s0)
   12f80:	01f7d793          	srli	a5,a5,0x1f
   12f84:	0ff7f793          	andi	a5,a5,255
   12f88:	fef42623          	sw	a5,-20(s0)
D:\CreateIC\01_CPIPC\riscv\RISCV_ENC_20220421\Firmware_true\app_prj\app_demo\Debug/../src/Bsp/Core/trap_handle.c:99
	int32_t cause     = mcause & 0xF;
   12f8c:	fdc42783          	lw	a5,-36(s0)
   12f90:	00f7f793          	andi	a5,a5,15
   12f94:	fef42423          	sw	a5,-24(s0)
D:\CreateIC\01_CPIPC\riscv\RISCV_ENC_20220421\Firmware_true\app_prj\app_demo\Debug/../src/Bsp/Core/trap_handle.c:102


    if (interrupt)
   12f98:	fec42783          	lw	a5,-20(s0)
   12f9c:	08078c63          	beqz	a5,13034 <trap+0xd4>
D:\CreateIC\01_CPIPC\riscv\RISCV_ENC_20220421\Firmware_true\app_prj\app_demo\Debug/../src/Bsp/Core/trap_handle.c:104
    {
        switch(cause)
   12fa0:	fe842703          	lw	a4,-24(s0)
   12fa4:	00700793          	li	a5,7
   12fa8:	02f70c63          	beq	a4,a5,12fe0 <trap+0x80>
   12fac:	fe842703          	lw	a4,-24(s0)
   12fb0:	00b00793          	li	a5,11
   12fb4:	02f70a63          	beq	a4,a5,12fe8 <trap+0x88>
   12fb8:	fe842703          	lw	a4,-24(s0)
   12fbc:	00300793          	li	a5,3
   12fc0:	06f71463          	bne	a4,a5,13028 <trap+0xc8>
D:\CreateIC\01_CPIPC\riscv\RISCV_ENC_20220421\Firmware_true\app_prj\app_demo\Debug/../src/Bsp/Core/trap_handle.c:108
        {
            case CASE_MACHINE_SOFT:
            {
            	sp[31] = mepc;
   12fc4:	fd442783          	lw	a5,-44(s0)
   12fc8:	07c78793          	addi	a5,a5,124
   12fcc:	fd842703          	lw	a4,-40(s0)
   12fd0:	00e7a023          	sw	a4,0(a5)
D:\CreateIC\01_CPIPC\riscv\RISCV_ENC_20220421\Firmware_true\app_prj\app_demo\Debug/../src/Bsp/Core/trap_handle.c:109
            	SoftwareInterruptExcute(sp);
   12fd4:	fd442503          	lw	a0,-44(s0)
   12fd8:	de1ff0ef          	jal	ra,12db8 <SoftwareInterruptExcute>
D:\CreateIC\01_CPIPC\riscv\RISCV_ENC_20220421\Firmware_true\app_prj\app_demo\Debug/../src/Bsp/Core/trap_handle.c:110
            	break;
   12fdc:	05c0006f          	j	13038 <trap+0xd8>
D:\CreateIC\01_CPIPC\riscv\RISCV_ENC_20220421\Firmware_true\app_prj\app_demo\Debug/../src/Bsp/Core/trap_handle.c:114
            }
            case CAUSE_MACHINE_TIMER:
            {
            	TimerInterruptExcute();
   12fe0:	e1dff0ef          	jal	ra,12dfc <TimerInterruptExcute>
D:\CreateIC\01_CPIPC\riscv\RISCV_ENC_20220421\Firmware_true\app_prj\app_demo\Debug/../src/Bsp/Core/trap_handle.c:115
            	break;
   12fe4:	0540006f          	j	13038 <trap+0xd8>
D:\CreateIC\01_CPIPC\riscv\RISCV_ENC_20220421\Firmware_true\app_prj\app_demo\Debug/../src/Bsp/Core/trap_handle.c:119
            }
            case CAUSE_MACHINE_EXTERNAL:
            {
            	csr_set(mie, MIE_MEIE);
   12fe8:	000017b7          	lui	a5,0x1
   12fec:	80078793          	addi	a5,a5,-2048 # 800 <__stack_size-0xf800>
   12ff0:	fef42223          	sw	a5,-28(s0)
   12ff4:	fe442783          	lw	a5,-28(s0)
   12ff8:	3047a073          	csrs	mie,a5
D:\CreateIC\01_CPIPC\riscv\RISCV_ENC_20220421\Firmware_true\app_prj\app_demo\Debug/../src/Bsp/Core/trap_handle.c:120
            	PUSH_MEPC;
   12ffc:	34102573          	csrr	a0,mepc
   13000:	00a12223          	sw	a0,4(sp)
D:\CreateIC\01_CPIPC\riscv\RISCV_ENC_20220421\Firmware_true\app_prj\app_demo\Debug/../src/Bsp/Core/trap_handle.c:121
            	ExternalInterruptExcute();
   13004:	8d9fe0ef          	jal	ra,118dc <ExternalInterruptExcute>
D:\CreateIC\01_CPIPC\riscv\RISCV_ENC_20220421\Firmware_true\app_prj\app_demo\Debug/../src/Bsp/Core/trap_handle.c:122
            	POP_MEPC;
   13008:	00412503          	lw	a0,4(sp)
   1300c:	34151073          	csrw	mepc,a0
D:\CreateIC\01_CPIPC\riscv\RISCV_ENC_20220421\Firmware_true\app_prj\app_demo\Debug/../src/Bsp/Core/trap_handle.c:123
            	csr_set(mie, MIE_MEIE | MIE_MSIE);
   13010:	000017b7          	lui	a5,0x1
   13014:	80878793          	addi	a5,a5,-2040 # 808 <__stack_size-0xf7f8>
   13018:	fef42023          	sw	a5,-32(s0)
   1301c:	fe042783          	lw	a5,-32(s0)
   13020:	3047a073          	csrs	mie,a5
D:\CreateIC\01_CPIPC\riscv\RISCV_ENC_20220421\Firmware_true\app_prj\app_demo\Debug/../src/Bsp/Core/trap_handle.c:124
            	break;
   13024:	0140006f          	j	13038 <trap+0xd8>
D:\CreateIC\01_CPIPC\riscv\RISCV_ENC_20220421\Firmware_true\app_prj\app_demo\Debug/../src/Bsp/Core/trap_handle.c:128
            }
            default:
            {
            	ExceptionHandleExcute();
   13028:	ed5ff0ef          	jal	ra,12efc <ExceptionHandleExcute>
D:\CreateIC\01_CPIPC\riscv\RISCV_ENC_20220421\Firmware_true\app_prj\app_demo\Debug/../src/Bsp/Core/trap_handle.c:129
            	break;
   1302c:	00000013          	nop
   13030:	0080006f          	j	13038 <trap+0xd8>
D:\CreateIC\01_CPIPC\riscv\RISCV_ENC_20220421\Firmware_true\app_prj\app_demo\Debug/../src/Bsp/Core/trap_handle.c:135
            }
        }
    }
    else
    {
    	ExceptionHandleExcute();
   13034:	ec9ff0ef          	jal	ra,12efc <ExceptionHandleExcute>
D:\CreateIC\01_CPIPC\riscv\RISCV_ENC_20220421\Firmware_true\app_prj\app_demo\Debug/../src/Bsp/Core/trap_handle.c:137
    }
}
   13038:	00000013          	nop
   1303c:	02c12083          	lw	ra,44(sp)
   13040:	02812403          	lw	s0,40(sp)
   13044:	03010113          	addi	sp,sp,48
   13048:	00008067          	ret

0001304c <load_image>:
load_image():
D:\CreateIC\01_CPIPC\riscv\RISCV_ENC_20220421\Firmware_true\app_prj\app_demo\Debug/../src/main.c:44
void load_image(){
   1304c:	ff010113          	addi	sp,sp,-16
   13050:	00112623          	sw	ra,12(sp)
   13054:	00812423          	sw	s0,8(sp)
   13058:	01010413          	addi	s0,sp,16
D:\CreateIC\01_CPIPC\riscv\RISCV_ENC_20220421\Firmware_true\app_prj\app_demo\Debug/../src/main.c:45
	stGpioObj.stCfgParam.ulChannels = GPIO_Pin_1;
   1305c:	000157b7          	lui	a5,0x15
   13060:	5e878793          	addi	a5,a5,1512 # 155e8 <stGpioObj>
   13064:	00200713          	li	a4,2
   13068:	00e7a623          	sw	a4,12(a5)
D:\CreateIC\01_CPIPC\riscv\RISCV_ENC_20220421\Firmware_true\app_prj\app_demo\Debug/../src/main.c:48
    GpioBitsDoutSet(&stGpioObj);
   1306c:	000157b7          	lui	a5,0x15
   13070:	5e878513          	addi	a0,a5,1512 # 155e8 <stGpioObj>
   13074:	e70fd0ef          	jal	ra,106e4 <GpioBitsDoutSet>
D:\CreateIC\01_CPIPC\riscv\RISCV_ENC_20220421\Firmware_true\app_prj\app_demo\Debug/../src/main.c:49
    DelayUs(5);
   13078:	00500513          	li	a0,5
   1307c:	bedff0ef          	jal	ra,12c68 <DelayUs>
D:\CreateIC\01_CPIPC\riscv\RISCV_ENC_20220421\Firmware_true\app_prj\app_demo\Debug/../src/main.c:50
    GpioBitsDoutClear(&stGpioObj);
   13080:	000157b7          	lui	a5,0x15
   13084:	5e878513          	addi	a0,a5,1512 # 155e8 <stGpioObj>
   13088:	ed4fd0ef          	jal	ra,1075c <GpioBitsDoutClear>
D:\CreateIC\01_CPIPC\riscv\RISCV_ENC_20220421\Firmware_true\app_prj\app_demo\Debug/../src/main.c:51
}
   1308c:	00000013          	nop
   13090:	00c12083          	lw	ra,12(sp)
   13094:	00812403          	lw	s0,8(sp)
   13098:	01010113          	addi	sp,sp,16
   1309c:	00008067          	ret

000130a0 <soft_rstn>:
soft_rstn():
D:\CreateIC\01_CPIPC\riscv\RISCV_ENC_20220421\Firmware_true\app_prj\app_demo\Debug/../src/main.c:53
void soft_rstn(){
   130a0:	ff010113          	addi	sp,sp,-16
   130a4:	00112623          	sw	ra,12(sp)
   130a8:	00812423          	sw	s0,8(sp)
   130ac:	01010413          	addi	s0,sp,16
D:\CreateIC\01_CPIPC\riscv\RISCV_ENC_20220421\Firmware_true\app_prj\app_demo\Debug/../src/main.c:54
	stGpioObj.stCfgParam.ulChannels = GPIO_Pin_3;
   130b0:	000157b7          	lui	a5,0x15
   130b4:	5e878793          	addi	a5,a5,1512 # 155e8 <stGpioObj>
   130b8:	00800713          	li	a4,8
   130bc:	00e7a623          	sw	a4,12(a5)
D:\CreateIC\01_CPIPC\riscv\RISCV_ENC_20220421\Firmware_true\app_prj\app_demo\Debug/../src/main.c:57
    GpioBitsDoutSet(&stGpioObj);
   130c0:	000157b7          	lui	a5,0x15
   130c4:	5e878513          	addi	a0,a5,1512 # 155e8 <stGpioObj>
   130c8:	e1cfd0ef          	jal	ra,106e4 <GpioBitsDoutSet>
D:\CreateIC\01_CPIPC\riscv\RISCV_ENC_20220421\Firmware_true\app_prj\app_demo\Debug/../src/main.c:58
    DelayUs(10);
   130cc:	00a00513          	li	a0,10
   130d0:	b99ff0ef          	jal	ra,12c68 <DelayUs>
D:\CreateIC\01_CPIPC\riscv\RISCV_ENC_20220421\Firmware_true\app_prj\app_demo\Debug/../src/main.c:59
    GpioBitsDoutClear(&stGpioObj);
   130d4:	000157b7          	lui	a5,0x15
   130d8:	5e878513          	addi	a0,a5,1512 # 155e8 <stGpioObj>
   130dc:	e80fd0ef          	jal	ra,1075c <GpioBitsDoutClear>
D:\CreateIC\01_CPIPC\riscv\RISCV_ENC_20220421\Firmware_true\app_prj\app_demo\Debug/../src/main.c:60
}
   130e0:	00000013          	nop
   130e4:	00c12083          	lw	ra,12(sp)
   130e8:	00812403          	lw	s0,8(sp)
   130ec:	01010113          	addi	sp,sp,16
   130f0:	00008067          	ret

000130f4 <UartIntrTest>:
UartIntrTest():
D:\CreateIC\01_CPIPC\riscv\RISCV_ENC_20220421\Firmware_true\app_prj\app_demo\Debug/../src/main.c:127

}


void UartIntrTest(void)
{
   130f4:	de010113          	addi	sp,sp,-544
   130f8:	20112e23          	sw	ra,540(sp)
   130fc:	20812c23          	sw	s0,536(sp)
   13100:	22010413          	addi	s0,sp,544
D:\CreateIC\01_CPIPC\riscv\RISCV_ENC_20220421\Firmware_true\app_prj\app_demo\Debug/../src/main.c:128
	uint32_t *pulSoftAddr = (uint32_t *)SOFT_INTR_BASE_ADDR;
   13104:	f80067b7          	lui	a5,0xf8006
   13108:	fef42623          	sw	a5,-20(s0)
D:\CreateIC\01_CPIPC\riscv\RISCV_ENC_20220421\Firmware_true\app_prj\app_demo\Debug/../src/main.c:129
	UartStructDeInit(&stUartObj);
   1310c:	000157b7          	lui	a5,0x15
   13110:	5ac78513          	addi	a0,a5,1452 # 155ac <stUartObj>
   13114:	e49fe0ef          	jal	ra,11f5c <UartStructDeInit>
D:\CreateIC\01_CPIPC\riscv\RISCV_ENC_20220421\Firmware_true\app_prj\app_demo\Debug/../src/main.c:131

	stUartObj.stCfgParam.ucIntrCtrl = UART_INTR_ERBI_EN;
   13118:	000157b7          	lui	a5,0x15
   1311c:	5ac78793          	addi	a5,a5,1452 # 155ac <stUartObj>
   13120:	00100713          	li	a4,1
   13124:	00e78b23          	sb	a4,22(a5)
D:\CreateIC\01_CPIPC\riscv\RISCV_ENC_20220421\Firmware_true\app_prj\app_demo\Debug/../src/main.c:132
	stUartObj.stPlicCfgParam.ucIntrEnFlage = ENABLE;
   13128:	000157b7          	lui	a5,0x15
   1312c:	5ac78793          	addi	a5,a5,1452 # 155ac <stUartObj>
   13130:	00100713          	li	a4,1
   13134:	00e78e23          	sb	a4,28(a5)
D:\CreateIC\01_CPIPC\riscv\RISCV_ENC_20220421\Firmware_true\app_prj\app_demo\Debug/../src/main.c:134

	UartObjConfigInit(&stUartObj);
   13138:	000157b7          	lui	a5,0x15
   1313c:	5ac78513          	addi	a0,a5,1452 # 155ac <stUartObj>
   13140:	f01fe0ef          	jal	ra,12040 <UartObjConfigInit>
D:\CreateIC\01_CPIPC\riscv\RISCV_ENC_20220421\Firmware_true\app_prj\app_demo\Debug/../src/main.c:137

	/* Initialize GPIO Structure */
	GpioStructDeInit(&stGpioObj);
   13144:	000157b7          	lui	a5,0x15
   13148:	5e878513          	addi	a0,a5,1512 # 155e8 <stGpioObj>
   1314c:	ac8fd0ef          	jal	ra,10414 <GpioStructDeInit>
D:\CreateIC\01_CPIPC\riscv\RISCV_ENC_20220421\Firmware_true\app_prj\app_demo\Debug/../src/main.c:138
	GpioObjConfigInit(&stGpioObj);
   13150:	000157b7          	lui	a5,0x15
   13154:	5e878513          	addi	a0,a5,1512 # 155e8 <stGpioObj>
   13158:	b78fd0ef          	jal	ra,104d0 <GpioObjConfigInit>
D:\CreateIC\01_CPIPC\riscv\RISCV_ENC_20220421\Firmware_true\app_prj\app_demo\Debug/../src/main.c:139
    GpioBitsDoutSet(&stGpioObj);
   1315c:	000157b7          	lui	a5,0x15
   13160:	5e878513          	addi	a0,a5,1512 # 155e8 <stGpioObj>
   13164:	d80fd0ef          	jal	ra,106e4 <GpioBitsDoutSet>
D:\CreateIC\01_CPIPC\riscv\RISCV_ENC_20220421\Firmware_true\app_prj\app_demo\Debug/../src/main.c:142


	MachineTimerObjStructDeInit(&stTimerObj);
   13168:	000157b7          	lui	a5,0x15
   1316c:	5d078513          	addi	a0,a5,1488 # 155d0 <stTimerObj>
   13170:	991fe0ef          	jal	ra,11b00 <MachineTimerObjStructDeInit>
D:\CreateIC\01_CPIPC\riscv\RISCV_ENC_20220421\Firmware_true\app_prj\app_demo\Debug/../src/main.c:143
	MachineTimerObjConfigInit(&stTimerObj);
   13174:	000157b7          	lui	a5,0x15
   13178:	5d078513          	addi	a0,a5,1488 # 155d0 <stTimerObj>
   1317c:	a11fe0ef          	jal	ra,11b8c <MachineTimerObjConfigInit>
D:\CreateIC\01_CPIPC\riscv\RISCV_ENC_20220421\Firmware_true\app_prj\app_demo\Debug/../src/main.c:144
	TrapInit();
   13180:	d9dff0ef          	jal	ra,12f1c <TrapInit>
D:\CreateIC\01_CPIPC\riscv\RISCV_ENC_20220421\Firmware_true\app_prj\app_demo\Debug/../src/main.c:145
	uint8_t aucCount = 0;
   13184:	fe0405a3          	sb	zero,-21(s0)
D:\CreateIC\01_CPIPC\riscv\RISCV_ENC_20220421\Firmware_true\app_prj\app_demo\Debug/../src/main.c:146
	uint8_t aucSendBuf[256] = {0};
   13188:	ee840793          	addi	a5,s0,-280
   1318c:	10000713          	li	a4,256
   13190:	00070613          	mv	a2,a4
   13194:	00000593          	li	a1,0
   13198:	00078513          	mv	a0,a5
   1319c:	09d000ef          	jal	ra,13a38 <memset>
D:\CreateIC\01_CPIPC\riscv\RISCV_ENC_20220421\Firmware_true\app_prj\app_demo\Debug/../src/main.c:147
	uint8_t aucRecvBuf[256] = {0};
   131a0:	de840793          	addi	a5,s0,-536
   131a4:	10000713          	li	a4,256
   131a8:	00070613          	mv	a2,a4
   131ac:	00000593          	li	a1,0
   131b0:	00078513          	mv	a0,a5
   131b4:	085000ef          	jal	ra,13a38 <memset>
D:\CreateIC\01_CPIPC\riscv\RISCV_ENC_20220421\Firmware_true\app_prj\app_demo\Debug/../src/main.c:148
	stUartObj.usRecvDataSize = 1;
   131b8:	000157b7          	lui	a5,0x15
   131bc:	5ac78793          	addi	a5,a5,1452 # 155ac <stUartObj>
   131c0:	00100713          	li	a4,1
   131c4:	00e79723          	sh	a4,14(a5)
D:\CreateIC\01_CPIPC\riscv\RISCV_ENC_20220421\Firmware_true\app_prj\app_demo\Debug/../src/main.c:149
	stUartObj.usRecvBytesCnt = 0;
   131c8:	000157b7          	lui	a5,0x15
   131cc:	5ac78793          	addi	a5,a5,1452 # 155ac <stUartObj>
   131d0:	00079923          	sh	zero,18(a5)
D:\CreateIC\01_CPIPC\riscv\RISCV_ENC_20220421\Firmware_true\app_prj\app_demo\Debug/../src/main.c:150
	stUartObj.pucRecvBuf = aucRecvBuf;
   131d4:	000157b7          	lui	a5,0x15
   131d8:	5ac78793          	addi	a5,a5,1452 # 155ac <stUartObj>
   131dc:	de840713          	addi	a4,s0,-536
   131e0:	00e7a423          	sw	a4,8(a5)
D:\CreateIC\01_CPIPC\riscv\RISCV_ENC_20220421\Firmware_true\app_prj\app_demo\Debug/../src/main.c:155


	while(1)
	{
		if (!wr_flag && !rd_flag && stUartObj.usRecvBytesCnt == stUartObj.usRecvDataSize) 	//
   131e4:	000157b7          	lui	a5,0x15
   131e8:	5047c783          	lbu	a5,1284(a5) # 15504 <wr_flag>
   131ec:	fe079ce3          	bnez	a5,131e4 <UartIntrTest+0xf0>
D:\CreateIC\01_CPIPC\riscv\RISCV_ENC_20220421\Firmware_true\app_prj\app_demo\Debug/../src/main.c:155 (discriminator 1)
   131f0:	000157b7          	lui	a5,0x15
   131f4:	5057c783          	lbu	a5,1285(a5) # 15505 <rd_flag>
   131f8:	fe0796e3          	bnez	a5,131e4 <UartIntrTest+0xf0>
D:\CreateIC\01_CPIPC\riscv\RISCV_ENC_20220421\Firmware_true\app_prj\app_demo\Debug/../src/main.c:155 (discriminator 2)
   131fc:	000157b7          	lui	a5,0x15
   13200:	5ac78793          	addi	a5,a5,1452 # 155ac <stUartObj>
   13204:	0127d703          	lhu	a4,18(a5)
   13208:	000157b7          	lui	a5,0x15
   1320c:	5ac78793          	addi	a5,a5,1452 # 155ac <stUartObj>
   13210:	00e7d783          	lhu	a5,14(a5)
   13214:	fcf718e3          	bne	a4,a5,131e4 <UartIntrTest+0xf0>
D:\CreateIC\01_CPIPC\riscv\RISCV_ENC_20220421\Firmware_true\app_prj\app_demo\Debug/../src/main.c:157
		{
			switch(aucRecvBuf[0]){
   13218:	de844783          	lbu	a5,-536(s0)
   1321c:	0cc00713          	li	a4,204
   13220:	0ae78863          	beq	a5,a4,132d0 <UartIntrTest+0x1dc>
   13224:	0cc00713          	li	a4,204
   13228:	00f74c63          	blt	a4,a5,13240 <UartIntrTest+0x14c>
   1322c:	0aa00713          	li	a4,170
   13230:	02e78263          	beq	a5,a4,13254 <UartIntrTest+0x160>
   13234:	0bb00713          	li	a4,187
   13238:	04e78c63          	beq	a5,a4,13290 <UartIntrTest+0x19c>
   1323c:	0fc0006f          	j	13338 <UartIntrTest+0x244>
   13240:	0dd00713          	li	a4,221
   13244:	0ce78663          	beq	a5,a4,13310 <UartIntrTest+0x21c>
   13248:	0ee00713          	li	a4,238
   1324c:	0ce78c63          	beq	a5,a4,13324 <UartIntrTest+0x230>
   13250:	0e80006f          	j	13338 <UartIntrTest+0x244>
D:\CreateIC\01_CPIPC\riscv\RISCV_ENC_20220421\Firmware_true\app_prj\app_demo\Debug/../src/main.c:159
			case 0xaa:
				wr_flag = 0;
   13254:	000157b7          	lui	a5,0x15
   13258:	50078223          	sb	zero,1284(a5) # 15504 <wr_flag>
D:\CreateIC\01_CPIPC\riscv\RISCV_ENC_20220421\Firmware_true\app_prj\app_demo\Debug/../src/main.c:160
				rd_flag = 0;
   1325c:	000157b7          	lui	a5,0x15
   13260:	500782a3          	sb	zero,1285(a5) # 15505 <rd_flag>
D:\CreateIC\01_CPIPC\riscv\RISCV_ENC_20220421\Firmware_true\app_prj\app_demo\Debug/../src/main.c:161
				printf("[Reset] wr flag: %d, rd flag: %d \r", wr_flag, rd_flag);
   13264:	000157b7          	lui	a5,0x15
   13268:	5047c783          	lbu	a5,1284(a5) # 15504 <wr_flag>
   1326c:	00078713          	mv	a4,a5
   13270:	000157b7          	lui	a5,0x15
   13274:	5057c783          	lbu	a5,1285(a5) # 15505 <rd_flag>
   13278:	00078613          	mv	a2,a5
   1327c:	00070593          	mv	a1,a4
   13280:	000157b7          	lui	a5,0x15
   13284:	25c78513          	addi	a0,a5,604 # 1525c <__init_array_end+0x1f0>
   13288:	235000ef          	jal	ra,13cbc <iprintf>
D:\CreateIC\01_CPIPC\riscv\RISCV_ENC_20220421\Firmware_true\app_prj\app_demo\Debug/../src/main.c:162
				break;
   1328c:	0c00006f          	j	1334c <UartIntrTest+0x258>
D:\CreateIC\01_CPIPC\riscv\RISCV_ENC_20220421\Firmware_true\app_prj\app_demo\Debug/../src/main.c:164
			case 0xbb:
				wr_flag = 1;
   13290:	000157b7          	lui	a5,0x15
   13294:	00100713          	li	a4,1
   13298:	50e78223          	sb	a4,1284(a5) # 15504 <wr_flag>
D:\CreateIC\01_CPIPC\riscv\RISCV_ENC_20220421\Firmware_true\app_prj\app_demo\Debug/../src/main.c:165
				rd_flag = 0;
   1329c:	000157b7          	lui	a5,0x15
   132a0:	500782a3          	sb	zero,1285(a5) # 15505 <rd_flag>
D:\CreateIC\01_CPIPC\riscv\RISCV_ENC_20220421\Firmware_true\app_prj\app_demo\Debug/../src/main.c:166
				printf("\r wr flag: %d, rd flag: %d \r", wr_flag, rd_flag);
   132a4:	000157b7          	lui	a5,0x15
   132a8:	5047c783          	lbu	a5,1284(a5) # 15504 <wr_flag>
   132ac:	00078713          	mv	a4,a5
   132b0:	000157b7          	lui	a5,0x15
   132b4:	5057c783          	lbu	a5,1285(a5) # 15505 <rd_flag>
   132b8:	00078613          	mv	a2,a5
   132bc:	00070593          	mv	a1,a4
   132c0:	000157b7          	lui	a5,0x15
   132c4:	28078513          	addi	a0,a5,640 # 15280 <__init_array_end+0x214>
   132c8:	1f5000ef          	jal	ra,13cbc <iprintf>
D:\CreateIC\01_CPIPC\riscv\RISCV_ENC_20220421\Firmware_true\app_prj\app_demo\Debug/../src/main.c:167
				break;
   132cc:	0800006f          	j	1334c <UartIntrTest+0x258>
D:\CreateIC\01_CPIPC\riscv\RISCV_ENC_20220421\Firmware_true\app_prj\app_demo\Debug/../src/main.c:169
			case 0xcc:
				wr_flag = 0;
   132d0:	000157b7          	lui	a5,0x15
   132d4:	50078223          	sb	zero,1284(a5) # 15504 <wr_flag>
D:\CreateIC\01_CPIPC\riscv\RISCV_ENC_20220421\Firmware_true\app_prj\app_demo\Debug/../src/main.c:170
				rd_flag = 1;
   132d8:	000157b7          	lui	a5,0x15
   132dc:	00100713          	li	a4,1
   132e0:	50e782a3          	sb	a4,1285(a5) # 15505 <rd_flag>
D:\CreateIC\01_CPIPC\riscv\RISCV_ENC_20220421\Firmware_true\app_prj\app_demo\Debug/../src/main.c:171
				printf("\r wr flag: %d, rd flag: %d \r", wr_flag, rd_flag);
   132e4:	000157b7          	lui	a5,0x15
   132e8:	5047c783          	lbu	a5,1284(a5) # 15504 <wr_flag>
   132ec:	00078713          	mv	a4,a5
   132f0:	000157b7          	lui	a5,0x15
   132f4:	5057c783          	lbu	a5,1285(a5) # 15505 <rd_flag>
   132f8:	00078613          	mv	a2,a5
   132fc:	00070593          	mv	a1,a4
   13300:	000157b7          	lui	a5,0x15
   13304:	28078513          	addi	a0,a5,640 # 15280 <__init_array_end+0x214>
   13308:	1b5000ef          	jal	ra,13cbc <iprintf>
D:\CreateIC\01_CPIPC\riscv\RISCV_ENC_20220421\Firmware_true\app_prj\app_demo\Debug/../src/main.c:172
				break;
   1330c:	0400006f          	j	1334c <UartIntrTest+0x258>
D:\CreateIC\01_CPIPC\riscv\RISCV_ENC_20220421\Firmware_true\app_prj\app_demo\Debug/../src/main.c:174
			case 0xdd:
				load_image();
   13310:	d3dff0ef          	jal	ra,1304c <load_image>
D:\CreateIC\01_CPIPC\riscv\RISCV_ENC_20220421\Firmware_true\app_prj\app_demo\Debug/../src/main.c:175
				printf("\r load image  \r");
   13314:	000157b7          	lui	a5,0x15
   13318:	2a078513          	addi	a0,a5,672 # 152a0 <__init_array_end+0x234>
   1331c:	1a1000ef          	jal	ra,13cbc <iprintf>
D:\CreateIC\01_CPIPC\riscv\RISCV_ENC_20220421\Firmware_true\app_prj\app_demo\Debug/../src/main.c:176
				break;
   13320:	02c0006f          	j	1334c <UartIntrTest+0x258>
D:\CreateIC\01_CPIPC\riscv\RISCV_ENC_20220421\Firmware_true\app_prj\app_demo\Debug/../src/main.c:178
			case 0xee:
				soft_rstn();
   13324:	d7dff0ef          	jal	ra,130a0 <soft_rstn>
D:\CreateIC\01_CPIPC\riscv\RISCV_ENC_20220421\Firmware_true\app_prj\app_demo\Debug/../src/main.c:179
				printf("\r soft reset! \r");
   13328:	000157b7          	lui	a5,0x15
   1332c:	2b078513          	addi	a0,a5,688 # 152b0 <__init_array_end+0x244>
   13330:	18d000ef          	jal	ra,13cbc <iprintf>
D:\CreateIC\01_CPIPC\riscv\RISCV_ENC_20220421\Firmware_true\app_prj\app_demo\Debug/../src/main.c:180
				break;
   13334:	0180006f          	j	1334c <UartIntrTest+0x258>
D:\CreateIC\01_CPIPC\riscv\RISCV_ENC_20220421\Firmware_true\app_prj\app_demo\Debug/../src/main.c:182
			default:
				wr_flag = 0;
   13338:	000157b7          	lui	a5,0x15
   1333c:	50078223          	sb	zero,1284(a5) # 15504 <wr_flag>
D:\CreateIC\01_CPIPC\riscv\RISCV_ENC_20220421\Firmware_true\app_prj\app_demo\Debug/../src/main.c:183
				rd_flag = 0;
   13340:	000157b7          	lui	a5,0x15
   13344:	500782a3          	sb	zero,1285(a5) # 15505 <rd_flag>
D:\CreateIC\01_CPIPC\riscv\RISCV_ENC_20220421\Firmware_true\app_prj\app_demo\Debug/../src/main.c:184
				break;
   13348:	00000013          	nop
D:\CreateIC\01_CPIPC\riscv\RISCV_ENC_20220421\Firmware_true\app_prj\app_demo\Debug/../src/main.c:187
			}

			stUartObj.usRecvBytesCnt = 0;
   1334c:	000157b7          	lui	a5,0x15
   13350:	5ac78793          	addi	a5,a5,1452 # 155ac <stUartObj>
   13354:	00079923          	sh	zero,18(a5)
D:\CreateIC\01_CPIPC\riscv\RISCV_ENC_20220421\Firmware_true\app_prj\app_demo\Debug/../src/main.c:191
//			for(int i=0;i<stUartObj.usRecvDataSize;i++){
//	            printf ("接收到的数据： %d\r", aucRecvBuf[i]);
//			}
			memset(aucRecvBuf, 0, stUartObj.usRecvDataSize);
   13358:	000157b7          	lui	a5,0x15
   1335c:	5ac78793          	addi	a5,a5,1452 # 155ac <stUartObj>
   13360:	00e7d783          	lhu	a5,14(a5)
   13364:	00078713          	mv	a4,a5
   13368:	de840793          	addi	a5,s0,-536
   1336c:	00070613          	mv	a2,a4
   13370:	00000593          	li	a1,0
   13374:	00078513          	mv	a0,a5
   13378:	6c0000ef          	jal	ra,13a38 <memset>
D:\CreateIC\01_CPIPC\riscv\RISCV_ENC_20220421\Firmware_true\app_prj\app_demo\Debug/../src/main.c:155
		if (!wr_flag && !rd_flag && stUartObj.usRecvBytesCnt == stUartObj.usRecvDataSize) 	//
   1337c:	e69ff06f          	j	131e4 <UartIntrTest+0xf0>

00013380 <assert_failed>:
assert_failed():
D:\CreateIC\01_CPIPC\riscv\RISCV_ENC_20220421\Firmware_true\app_prj\app_demo\Debug/../src/main.c:388
}

#ifdef  USE_FULL_ASSERT

void assert_failed(uint8_t* file, uint32_t line)
{
   13380:	fe010113          	addi	sp,sp,-32
   13384:	00112e23          	sw	ra,28(sp)
   13388:	00812c23          	sw	s0,24(sp)
   1338c:	02010413          	addi	s0,sp,32
   13390:	fea42623          	sw	a0,-20(s0)
   13394:	feb42423          	sw	a1,-24(s0)
D:\CreateIC\01_CPIPC\riscv\RISCV_ENC_20220421\Firmware_true\app_prj\app_demo\Debug/../src/main.c:389
	printf("Err: Filename-%s， Line-%d\n", file, line);
   13398:	fe842603          	lw	a2,-24(s0)
   1339c:	fec42583          	lw	a1,-20(s0)
   133a0:	000157b7          	lui	a5,0x15
   133a4:	2fc78513          	addi	a0,a5,764 # 152fc <__init_array_end+0x290>
   133a8:	115000ef          	jal	ra,13cbc <iprintf>
D:\CreateIC\01_CPIPC\riscv\RISCV_ENC_20220421\Firmware_true\app_prj\app_demo\Debug/../src/main.c:390 (discriminator 1)
	while (1);
   133ac:	0000006f          	j	133ac <assert_failed+0x2c>

000133b0 <__sflush_r>:
__sflush_r():
   133b0:	00c5d783          	lhu	a5,12(a1)
   133b4:	fe010113          	addi	sp,sp,-32
   133b8:	00812c23          	sw	s0,24(sp)
   133bc:	00912a23          	sw	s1,20(sp)
   133c0:	00112e23          	sw	ra,28(sp)
   133c4:	01212823          	sw	s2,16(sp)
   133c8:	01312623          	sw	s3,12(sp)
   133cc:	0087f713          	andi	a4,a5,8
   133d0:	00050493          	mv	s1,a0
   133d4:	00058413          	mv	s0,a1
   133d8:	14071e63          	bnez	a4,13534 <__sflush_r+0x184>
   133dc:	0045a703          	lw	a4,4(a1)
   133e0:	00e04a63          	bgtz	a4,133f4 <__sflush_r+0x44>
   133e4:	0405a703          	lw	a4,64(a1)
   133e8:	00e04663          	bgtz	a4,133f4 <__sflush_r+0x44>
   133ec:	00000513          	li	a0,0
   133f0:	11c0006f          	j	1350c <__sflush_r+0x15c>
   133f4:	02c42703          	lw	a4,44(s0)
   133f8:	fe070ae3          	beqz	a4,133ec <__sflush_r+0x3c>
   133fc:	0004a903          	lw	s2,0(s1)
   13400:	01379693          	slli	a3,a5,0x13
   13404:	0004a023          	sw	zero,0(s1)
   13408:	0a06de63          	bgez	a3,134c4 <__sflush_r+0x114>
   1340c:	05442503          	lw	a0,84(s0)
   13410:	00c45783          	lhu	a5,12(s0)
   13414:	0047f793          	andi	a5,a5,4
   13418:	00078e63          	beqz	a5,13434 <__sflush_r+0x84>
   1341c:	00442783          	lw	a5,4(s0)
   13420:	40f50533          	sub	a0,a0,a5
   13424:	03442783          	lw	a5,52(s0)
   13428:	00078663          	beqz	a5,13434 <__sflush_r+0x84>
   1342c:	04042783          	lw	a5,64(s0)
   13430:	40f50533          	sub	a0,a0,a5
   13434:	02c42783          	lw	a5,44(s0)
   13438:	02042583          	lw	a1,32(s0)
   1343c:	00050613          	mv	a2,a0
   13440:	00000693          	li	a3,0
   13444:	00048513          	mv	a0,s1
   13448:	000780e7          	jalr	a5
   1344c:	fff00793          	li	a5,-1
   13450:	00c45703          	lhu	a4,12(s0)
   13454:	02f51263          	bne	a0,a5,13478 <__sflush_r+0xc8>
   13458:	0004a683          	lw	a3,0(s1)
   1345c:	01d00793          	li	a5,29
   13460:	0cd7e463          	bltu	a5,a3,13528 <__sflush_r+0x178>
   13464:	204007b7          	lui	a5,0x20400
   13468:	00178793          	addi	a5,a5,1 # 20400001 <__freertos_irq_stack_top+0x203c19f1>
   1346c:	00d7d7b3          	srl	a5,a5,a3
   13470:	0017f793          	andi	a5,a5,1
   13474:	0a078a63          	beqz	a5,13528 <__sflush_r+0x178>
   13478:	01042783          	lw	a5,16(s0)
   1347c:	00042223          	sw	zero,4(s0)
   13480:	00f42023          	sw	a5,0(s0)
   13484:	01371793          	slli	a5,a4,0x13
   13488:	0007dc63          	bgez	a5,134a0 <__sflush_r+0xf0>
   1348c:	fff00793          	li	a5,-1
   13490:	00f51663          	bne	a0,a5,1349c <__sflush_r+0xec>
   13494:	0004a783          	lw	a5,0(s1)
   13498:	00079463          	bnez	a5,134a0 <__sflush_r+0xf0>
   1349c:	04a42a23          	sw	a0,84(s0)
   134a0:	03442583          	lw	a1,52(s0)
   134a4:	0124a023          	sw	s2,0(s1)
   134a8:	f40582e3          	beqz	a1,133ec <__sflush_r+0x3c>
   134ac:	04440793          	addi	a5,s0,68
   134b0:	00f58663          	beq	a1,a5,134bc <__sflush_r+0x10c>
   134b4:	00048513          	mv	a0,s1
   134b8:	59c000ef          	jal	ra,13a54 <_free_r>
   134bc:	02042a23          	sw	zero,52(s0)
   134c0:	f2dff06f          	j	133ec <__sflush_r+0x3c>
   134c4:	02042583          	lw	a1,32(s0)
   134c8:	00100693          	li	a3,1
   134cc:	00000613          	li	a2,0
   134d0:	00048513          	mv	a0,s1
   134d4:	000700e7          	jalr	a4 # 300000 <__freertos_irq_stack_top+0x2c19f0>
   134d8:	fff00793          	li	a5,-1
   134dc:	f2f51ae3          	bne	a0,a5,13410 <__sflush_r+0x60>
   134e0:	0004a783          	lw	a5,0(s1)
   134e4:	f20786e3          	beqz	a5,13410 <__sflush_r+0x60>
   134e8:	01d00713          	li	a4,29
   134ec:	00e78663          	beq	a5,a4,134f8 <__sflush_r+0x148>
   134f0:	01600713          	li	a4,22
   134f4:	00e79663          	bne	a5,a4,13500 <__sflush_r+0x150>
   134f8:	0124a023          	sw	s2,0(s1)
   134fc:	ef1ff06f          	j	133ec <__sflush_r+0x3c>
   13500:	00c45783          	lhu	a5,12(s0)
   13504:	0407e793          	ori	a5,a5,64
   13508:	00f41623          	sh	a5,12(s0)
   1350c:	01c12083          	lw	ra,28(sp)
   13510:	01812403          	lw	s0,24(sp)
   13514:	01412483          	lw	s1,20(sp)
   13518:	01012903          	lw	s2,16(sp)
   1351c:	00c12983          	lw	s3,12(sp)
   13520:	02010113          	addi	sp,sp,32
   13524:	00008067          	ret
   13528:	04076713          	ori	a4,a4,64
   1352c:	00e41623          	sh	a4,12(s0)
   13530:	fddff06f          	j	1350c <__sflush_r+0x15c>
   13534:	0105a983          	lw	s3,16(a1)
   13538:	ea098ae3          	beqz	s3,133ec <__sflush_r+0x3c>
   1353c:	0005a903          	lw	s2,0(a1)
   13540:	0037f793          	andi	a5,a5,3
   13544:	0135a023          	sw	s3,0(a1)
   13548:	41390933          	sub	s2,s2,s3
   1354c:	00000713          	li	a4,0
   13550:	00079463          	bnez	a5,13558 <__sflush_r+0x1a8>
   13554:	0145a703          	lw	a4,20(a1)
   13558:	00e42423          	sw	a4,8(s0)
   1355c:	e92058e3          	blez	s2,133ec <__sflush_r+0x3c>
   13560:	02842783          	lw	a5,40(s0)
   13564:	02042583          	lw	a1,32(s0)
   13568:	00090693          	mv	a3,s2
   1356c:	00098613          	mv	a2,s3
   13570:	00048513          	mv	a0,s1
   13574:	000780e7          	jalr	a5
   13578:	00a04c63          	bgtz	a0,13590 <__sflush_r+0x1e0>
   1357c:	00c45783          	lhu	a5,12(s0)
   13580:	fff00513          	li	a0,-1
   13584:	0407e793          	ori	a5,a5,64
   13588:	00f41623          	sh	a5,12(s0)
   1358c:	f81ff06f          	j	1350c <__sflush_r+0x15c>
   13590:	00a989b3          	add	s3,s3,a0
   13594:	40a90933          	sub	s2,s2,a0
   13598:	fc5ff06f          	j	1355c <__sflush_r+0x1ac>

0001359c <_fflush_r>:
_fflush_r():
   1359c:	0105a783          	lw	a5,16(a1)
   135a0:	08078a63          	beqz	a5,13634 <_fflush_r+0x98>
   135a4:	fe010113          	addi	sp,sp,-32
   135a8:	00812c23          	sw	s0,24(sp)
   135ac:	00112e23          	sw	ra,28(sp)
   135b0:	00050413          	mv	s0,a0
   135b4:	00050c63          	beqz	a0,135cc <_fflush_r+0x30>
   135b8:	01852783          	lw	a5,24(a0)
   135bc:	00079863          	bnez	a5,135cc <_fflush_r+0x30>
   135c0:	00b12623          	sw	a1,12(sp)
   135c4:	178000ef          	jal	ra,1373c <__sinit>
   135c8:	00c12583          	lw	a1,12(sp)
   135cc:	00002797          	auipc	a5,0x2
   135d0:	d6c78793          	addi	a5,a5,-660 # 15338 <__sf_fake_stdin>
   135d4:	02f59263          	bne	a1,a5,135f8 <_fflush_r+0x5c>
   135d8:	00442583          	lw	a1,4(s0)
   135dc:	00c59783          	lh	a5,12(a1)
   135e0:	04078063          	beqz	a5,13620 <_fflush_r+0x84>
   135e4:	00040513          	mv	a0,s0
   135e8:	01812403          	lw	s0,24(sp)
   135ec:	01c12083          	lw	ra,28(sp)
   135f0:	02010113          	addi	sp,sp,32
   135f4:	dbdff06f          	j	133b0 <__sflush_r>
   135f8:	00002797          	auipc	a5,0x2
   135fc:	d6078793          	addi	a5,a5,-672 # 15358 <__sf_fake_stdout>
   13600:	00f59663          	bne	a1,a5,1360c <_fflush_r+0x70>
   13604:	00842583          	lw	a1,8(s0)
   13608:	fd5ff06f          	j	135dc <_fflush_r+0x40>
   1360c:	00002797          	auipc	a5,0x2
   13610:	d0c78793          	addi	a5,a5,-756 # 15318 <__sf_fake_stderr>
   13614:	fcf594e3          	bne	a1,a5,135dc <_fflush_r+0x40>
   13618:	00c42583          	lw	a1,12(s0)
   1361c:	fc1ff06f          	j	135dc <_fflush_r+0x40>
   13620:	01c12083          	lw	ra,28(sp)
   13624:	01812403          	lw	s0,24(sp)
   13628:	00000513          	li	a0,0
   1362c:	02010113          	addi	sp,sp,32
   13630:	00008067          	ret
   13634:	00000513          	li	a0,0
   13638:	00008067          	ret

0001363c <std>:
std():
   1363c:	ff010113          	addi	sp,sp,-16
   13640:	00812423          	sw	s0,8(sp)
   13644:	00112623          	sw	ra,12(sp)
   13648:	00050413          	mv	s0,a0
   1364c:	00b51623          	sh	a1,12(a0)
   13650:	00c51723          	sh	a2,14(a0)
   13654:	00052023          	sw	zero,0(a0)
   13658:	00052223          	sw	zero,4(a0)
   1365c:	00052423          	sw	zero,8(a0)
   13660:	06052223          	sw	zero,100(a0)
   13664:	00052823          	sw	zero,16(a0)
   13668:	00052a23          	sw	zero,20(a0)
   1366c:	00052c23          	sw	zero,24(a0)
   13670:	00800613          	li	a2,8
   13674:	00000593          	li	a1,0
   13678:	05c50513          	addi	a0,a0,92
   1367c:	3bc000ef          	jal	ra,13a38 <memset>
   13680:	00001797          	auipc	a5,0x1
   13684:	87878793          	addi	a5,a5,-1928 # 13ef8 <__sread>
   13688:	02f42223          	sw	a5,36(s0)
   1368c:	00001797          	auipc	a5,0x1
   13690:	8bc78793          	addi	a5,a5,-1860 # 13f48 <__swrite>
   13694:	02f42423          	sw	a5,40(s0)
   13698:	00001797          	auipc	a5,0x1
   1369c:	93478793          	addi	a5,a5,-1740 # 13fcc <__sseek>
   136a0:	02f42623          	sw	a5,44(s0)
   136a4:	00001797          	auipc	a5,0x1
   136a8:	98078793          	addi	a5,a5,-1664 # 14024 <__sclose>
   136ac:	02842023          	sw	s0,32(s0)
   136b0:	02f42823          	sw	a5,48(s0)
   136b4:	00c12083          	lw	ra,12(sp)
   136b8:	00812403          	lw	s0,8(sp)
   136bc:	01010113          	addi	sp,sp,16
   136c0:	00008067          	ret

000136c4 <_cleanup_r>:
_cleanup_r():
   136c4:	00000597          	auipc	a1,0x0
   136c8:	ed858593          	addi	a1,a1,-296 # 1359c <_fflush_r>
   136cc:	2140006f          	j	138e0 <_fwalk_reent>

000136d0 <__sfmoreglue>:
__sfmoreglue():
   136d0:	ff010113          	addi	sp,sp,-16
   136d4:	00912223          	sw	s1,4(sp)
   136d8:	06800613          	li	a2,104
   136dc:	fff58493          	addi	s1,a1,-1
   136e0:	02c484b3          	mul	s1,s1,a2
   136e4:	01212023          	sw	s2,0(sp)
   136e8:	00058913          	mv	s2,a1
   136ec:	00812423          	sw	s0,8(sp)
   136f0:	00112623          	sw	ra,12(sp)
   136f4:	07448593          	addi	a1,s1,116
   136f8:	468000ef          	jal	ra,13b60 <_malloc_r>
   136fc:	00050413          	mv	s0,a0
   13700:	02050063          	beqz	a0,13720 <__sfmoreglue+0x50>
   13704:	00052023          	sw	zero,0(a0)
   13708:	01252223          	sw	s2,4(a0)
   1370c:	00c50513          	addi	a0,a0,12
   13710:	00a42423          	sw	a0,8(s0)
   13714:	06848613          	addi	a2,s1,104
   13718:	00000593          	li	a1,0
   1371c:	31c000ef          	jal	ra,13a38 <memset>
   13720:	00040513          	mv	a0,s0
   13724:	00c12083          	lw	ra,12(sp)
   13728:	00812403          	lw	s0,8(sp)
   1372c:	00412483          	lw	s1,4(sp)
   13730:	00012903          	lw	s2,0(sp)
   13734:	01010113          	addi	sp,sp,16
   13738:	00008067          	ret

0001373c <__sinit>:
__sinit():
   1373c:	01852783          	lw	a5,24(a0)
   13740:	0a079663          	bnez	a5,137ec <__sinit+0xb0>
   13744:	ff010113          	addi	sp,sp,-16
   13748:	00112623          	sw	ra,12(sp)
   1374c:	00812423          	sw	s0,8(sp)
   13750:	00000797          	auipc	a5,0x0
   13754:	f7478793          	addi	a5,a5,-140 # 136c4 <_cleanup_r>
   13758:	02f52423          	sw	a5,40(a0)
   1375c:	00002797          	auipc	a5,0x2
   13760:	90c78793          	addi	a5,a5,-1780 # 15068 <_global_impure_ptr>
   13764:	0007a783          	lw	a5,0(a5)
   13768:	04052423          	sw	zero,72(a0)
   1376c:	04052623          	sw	zero,76(a0)
   13770:	04052823          	sw	zero,80(a0)
   13774:	00f51663          	bne	a0,a5,13780 <__sinit+0x44>
   13778:	00100793          	li	a5,1
   1377c:	00f52c23          	sw	a5,24(a0)
   13780:	00050413          	mv	s0,a0
   13784:	06c000ef          	jal	ra,137f0 <__sfp>
   13788:	00a42223          	sw	a0,4(s0)
   1378c:	00040513          	mv	a0,s0
   13790:	060000ef          	jal	ra,137f0 <__sfp>
   13794:	00a42423          	sw	a0,8(s0)
   13798:	00040513          	mv	a0,s0
   1379c:	054000ef          	jal	ra,137f0 <__sfp>
   137a0:	00a42623          	sw	a0,12(s0)
   137a4:	00442503          	lw	a0,4(s0)
   137a8:	00000613          	li	a2,0
   137ac:	00400593          	li	a1,4
   137b0:	e8dff0ef          	jal	ra,1363c <std>
   137b4:	00842503          	lw	a0,8(s0)
   137b8:	00100613          	li	a2,1
   137bc:	00900593          	li	a1,9
   137c0:	e7dff0ef          	jal	ra,1363c <std>
   137c4:	00c42503          	lw	a0,12(s0)
   137c8:	00200613          	li	a2,2
   137cc:	01200593          	li	a1,18
   137d0:	e6dff0ef          	jal	ra,1363c <std>
   137d4:	00100793          	li	a5,1
   137d8:	00f42c23          	sw	a5,24(s0)
   137dc:	00c12083          	lw	ra,12(sp)
   137e0:	00812403          	lw	s0,8(sp)
   137e4:	01010113          	addi	sp,sp,16
   137e8:	00008067          	ret
   137ec:	00008067          	ret

000137f0 <__sfp>:
__sfp():
   137f0:	ff010113          	addi	sp,sp,-16
   137f4:	00002797          	auipc	a5,0x2
   137f8:	87478793          	addi	a5,a5,-1932 # 15068 <_global_impure_ptr>
   137fc:	00912223          	sw	s1,4(sp)
   13800:	0007a483          	lw	s1,0(a5)
   13804:	01212023          	sw	s2,0(sp)
   13808:	00112623          	sw	ra,12(sp)
   1380c:	0184a783          	lw	a5,24(s1)
   13810:	00812423          	sw	s0,8(sp)
   13814:	00050913          	mv	s2,a0
   13818:	00079663          	bnez	a5,13824 <__sfp+0x34>
   1381c:	00048513          	mv	a0,s1
   13820:	f1dff0ef          	jal	ra,1373c <__sinit>
   13824:	04848493          	addi	s1,s1,72
   13828:	0084a403          	lw	s0,8(s1)
   1382c:	0044a783          	lw	a5,4(s1)
   13830:	fff78793          	addi	a5,a5,-1
   13834:	0007da63          	bgez	a5,13848 <__sfp+0x58>
   13838:	0004a783          	lw	a5,0(s1)
   1383c:	08078063          	beqz	a5,138bc <__sfp+0xcc>
   13840:	0004a483          	lw	s1,0(s1)
   13844:	fe5ff06f          	j	13828 <__sfp+0x38>
   13848:	00c41703          	lh	a4,12(s0)
   1384c:	06071463          	bnez	a4,138b4 <__sfp+0xc4>
   13850:	ffff07b7          	lui	a5,0xffff0
   13854:	00178793          	addi	a5,a5,1 # ffff0001 <__freertos_irq_stack_top+0xfffb19f1>
   13858:	06042223          	sw	zero,100(s0)
   1385c:	00042023          	sw	zero,0(s0)
   13860:	00042223          	sw	zero,4(s0)
   13864:	00042423          	sw	zero,8(s0)
   13868:	00f42623          	sw	a5,12(s0)
   1386c:	00042823          	sw	zero,16(s0)
   13870:	00042a23          	sw	zero,20(s0)
   13874:	00042c23          	sw	zero,24(s0)
   13878:	00800613          	li	a2,8
   1387c:	00000593          	li	a1,0
   13880:	05c40513          	addi	a0,s0,92
   13884:	1b4000ef          	jal	ra,13a38 <memset>
   13888:	02042a23          	sw	zero,52(s0)
   1388c:	02042c23          	sw	zero,56(s0)
   13890:	04042423          	sw	zero,72(s0)
   13894:	04042623          	sw	zero,76(s0)
   13898:	00040513          	mv	a0,s0
   1389c:	00c12083          	lw	ra,12(sp)
   138a0:	00812403          	lw	s0,8(sp)
   138a4:	00412483          	lw	s1,4(sp)
   138a8:	00012903          	lw	s2,0(sp)
   138ac:	01010113          	addi	sp,sp,16
   138b0:	00008067          	ret
   138b4:	06840413          	addi	s0,s0,104
   138b8:	f79ff06f          	j	13830 <__sfp+0x40>
   138bc:	00400593          	li	a1,4
   138c0:	00090513          	mv	a0,s2
   138c4:	e0dff0ef          	jal	ra,136d0 <__sfmoreglue>
   138c8:	00a4a023          	sw	a0,0(s1)
   138cc:	00050413          	mv	s0,a0
   138d0:	f60518e3          	bnez	a0,13840 <__sfp+0x50>
   138d4:	00c00793          	li	a5,12
   138d8:	00f92023          	sw	a5,0(s2)
   138dc:	fbdff06f          	j	13898 <__sfp+0xa8>

000138e0 <_fwalk_reent>:
_fwalk_reent():
   138e0:	fd010113          	addi	sp,sp,-48
   138e4:	02812423          	sw	s0,40(sp)
   138e8:	03212023          	sw	s2,32(sp)
   138ec:	01412c23          	sw	s4,24(sp)
   138f0:	01512a23          	sw	s5,20(sp)
   138f4:	01612823          	sw	s6,16(sp)
   138f8:	01712623          	sw	s7,12(sp)
   138fc:	02112623          	sw	ra,44(sp)
   13900:	02912223          	sw	s1,36(sp)
   13904:	01312e23          	sw	s3,28(sp)
   13908:	00050a13          	mv	s4,a0
   1390c:	00058a93          	mv	s5,a1
   13910:	04850413          	addi	s0,a0,72
   13914:	00000913          	li	s2,0
   13918:	00100b13          	li	s6,1
   1391c:	fff00b93          	li	s7,-1
   13920:	02041a63          	bnez	s0,13954 <_fwalk_reent+0x74>
   13924:	02c12083          	lw	ra,44(sp)
   13928:	02812403          	lw	s0,40(sp)
   1392c:	00090513          	mv	a0,s2
   13930:	02412483          	lw	s1,36(sp)
   13934:	02012903          	lw	s2,32(sp)
   13938:	01c12983          	lw	s3,28(sp)
   1393c:	01812a03          	lw	s4,24(sp)
   13940:	01412a83          	lw	s5,20(sp)
   13944:	01012b03          	lw	s6,16(sp)
   13948:	00c12b83          	lw	s7,12(sp)
   1394c:	03010113          	addi	sp,sp,48
   13950:	00008067          	ret
   13954:	00842483          	lw	s1,8(s0)
   13958:	00442983          	lw	s3,4(s0)
   1395c:	fff98993          	addi	s3,s3,-1
   13960:	0009d663          	bgez	s3,1396c <_fwalk_reent+0x8c>
   13964:	00042403          	lw	s0,0(s0)
   13968:	fb9ff06f          	j	13920 <_fwalk_reent+0x40>
   1396c:	00c4d783          	lhu	a5,12(s1)
   13970:	00fb7e63          	bgeu	s6,a5,1398c <_fwalk_reent+0xac>
   13974:	00e49783          	lh	a5,14(s1)
   13978:	01778a63          	beq	a5,s7,1398c <_fwalk_reent+0xac>
   1397c:	00048593          	mv	a1,s1
   13980:	000a0513          	mv	a0,s4
   13984:	000a80e7          	jalr	s5
   13988:	00a96933          	or	s2,s2,a0
   1398c:	06848493          	addi	s1,s1,104
   13990:	fcdff06f          	j	1395c <_fwalk_reent+0x7c>

00013994 <__libc_init_array>:
__libc_init_array():
   13994:	ff010113          	addi	sp,sp,-16
   13998:	00001797          	auipc	a5,0x1
   1399c:	6d478793          	addi	a5,a5,1748 # 1506c <__init_array_end>
   139a0:	00812423          	sw	s0,8(sp)
   139a4:	00001417          	auipc	s0,0x1
   139a8:	6c840413          	addi	s0,s0,1736 # 1506c <__init_array_end>
   139ac:	40f40433          	sub	s0,s0,a5
   139b0:	00912223          	sw	s1,4(sp)
   139b4:	01212023          	sw	s2,0(sp)
   139b8:	00112623          	sw	ra,12(sp)
   139bc:	40245413          	srai	s0,s0,0x2
   139c0:	00000493          	li	s1,0
   139c4:	00078913          	mv	s2,a5
   139c8:	04849063          	bne	s1,s0,13a08 <__libc_init_array+0x74>
   139cc:	00001797          	auipc	a5,0x1
   139d0:	6a078793          	addi	a5,a5,1696 # 1506c <__init_array_end>
   139d4:	00001417          	auipc	s0,0x1
   139d8:	69840413          	addi	s0,s0,1688 # 1506c <__init_array_end>
   139dc:	40f40433          	sub	s0,s0,a5
   139e0:	40245413          	srai	s0,s0,0x2
   139e4:	00000493          	li	s1,0
   139e8:	00078913          	mv	s2,a5
   139ec:	02849a63          	bne	s1,s0,13a20 <__libc_init_array+0x8c>
   139f0:	00c12083          	lw	ra,12(sp)
   139f4:	00812403          	lw	s0,8(sp)
   139f8:	00412483          	lw	s1,4(sp)
   139fc:	00012903          	lw	s2,0(sp)
   13a00:	01010113          	addi	sp,sp,16
   13a04:	00008067          	ret
   13a08:	00249793          	slli	a5,s1,0x2
   13a0c:	00f907b3          	add	a5,s2,a5
   13a10:	0007a783          	lw	a5,0(a5)
   13a14:	00148493          	addi	s1,s1,1
   13a18:	000780e7          	jalr	a5
   13a1c:	fadff06f          	j	139c8 <__libc_init_array+0x34>
   13a20:	00249793          	slli	a5,s1,0x2
   13a24:	00f907b3          	add	a5,s2,a5
   13a28:	0007a783          	lw	a5,0(a5)
   13a2c:	00148493          	addi	s1,s1,1
   13a30:	000780e7          	jalr	a5
   13a34:	fb9ff06f          	j	139ec <__libc_init_array+0x58>

00013a38 <memset>:
memset():
   13a38:	00050313          	mv	t1,a0
   13a3c:	00060a63          	beqz	a2,13a50 <memset+0x18>
   13a40:	00b30023          	sb	a1,0(t1)
   13a44:	fff60613          	addi	a2,a2,-1
   13a48:	00130313          	addi	t1,t1,1
   13a4c:	fe061ae3          	bnez	a2,13a40 <memset+0x8>
   13a50:	00008067          	ret

00013a54 <_free_r>:
_free_r():
   13a54:	10058463          	beqz	a1,13b5c <_free_r+0x108>
   13a58:	ffc5a783          	lw	a5,-4(a1)
   13a5c:	ff010113          	addi	sp,sp,-16
   13a60:	00812423          	sw	s0,8(sp)
   13a64:	00112623          	sw	ra,12(sp)
   13a68:	00912223          	sw	s1,4(sp)
   13a6c:	ffc58413          	addi	s0,a1,-4
   13a70:	0007d463          	bgez	a5,13a78 <_free_r+0x24>
   13a74:	00f40433          	add	s0,s0,a5
   13a78:	00050493          	mv	s1,a0
   13a7c:	2dd000ef          	jal	ra,14558 <__malloc_lock>
   13a80:	00002797          	auipc	a5,0x2
   13a84:	a8878793          	addi	a5,a5,-1400 # 15508 <__malloc_free_list>
   13a88:	0007a783          	lw	a5,0(a5)
   13a8c:	02079463          	bnez	a5,13ab4 <_free_r+0x60>
   13a90:	00042223          	sw	zero,4(s0)
   13a94:	00002797          	auipc	a5,0x2
   13a98:	a687aa23          	sw	s0,-1420(a5) # 15508 <__malloc_free_list>
   13a9c:	00812403          	lw	s0,8(sp)
   13aa0:	00c12083          	lw	ra,12(sp)
   13aa4:	00048513          	mv	a0,s1
   13aa8:	00412483          	lw	s1,4(sp)
   13aac:	01010113          	addi	sp,sp,16
   13ab0:	2ad0006f          	j	1455c <__malloc_unlock>
   13ab4:	02f47663          	bgeu	s0,a5,13ae0 <_free_r+0x8c>
   13ab8:	00042683          	lw	a3,0(s0)
   13abc:	00d40733          	add	a4,s0,a3
   13ac0:	00e79a63          	bne	a5,a4,13ad4 <_free_r+0x80>
   13ac4:	0007a703          	lw	a4,0(a5)
   13ac8:	0047a783          	lw	a5,4(a5)
   13acc:	00d70733          	add	a4,a4,a3
   13ad0:	00e42023          	sw	a4,0(s0)
   13ad4:	00f42223          	sw	a5,4(s0)
   13ad8:	fbdff06f          	j	13a94 <_free_r+0x40>
   13adc:	00070793          	mv	a5,a4
   13ae0:	0047a703          	lw	a4,4(a5)
   13ae4:	00070463          	beqz	a4,13aec <_free_r+0x98>
   13ae8:	fee47ae3          	bgeu	s0,a4,13adc <_free_r+0x88>
   13aec:	0007a683          	lw	a3,0(a5)
   13af0:	00d78633          	add	a2,a5,a3
   13af4:	02861863          	bne	a2,s0,13b24 <_free_r+0xd0>
   13af8:	00042603          	lw	a2,0(s0)
   13afc:	00c686b3          	add	a3,a3,a2
   13b00:	00d7a023          	sw	a3,0(a5)
   13b04:	00d78633          	add	a2,a5,a3
   13b08:	f8c71ae3          	bne	a4,a2,13a9c <_free_r+0x48>
   13b0c:	00072603          	lw	a2,0(a4)
   13b10:	00472703          	lw	a4,4(a4)
   13b14:	00d606b3          	add	a3,a2,a3
   13b18:	00d7a023          	sw	a3,0(a5)
   13b1c:	00e7a223          	sw	a4,4(a5)
   13b20:	f7dff06f          	j	13a9c <_free_r+0x48>
   13b24:	00c47863          	bgeu	s0,a2,13b34 <_free_r+0xe0>
   13b28:	00c00793          	li	a5,12
   13b2c:	00f4a023          	sw	a5,0(s1)
   13b30:	f6dff06f          	j	13a9c <_free_r+0x48>
   13b34:	00042603          	lw	a2,0(s0)
   13b38:	00c406b3          	add	a3,s0,a2
   13b3c:	00d71a63          	bne	a4,a3,13b50 <_free_r+0xfc>
   13b40:	00072683          	lw	a3,0(a4)
   13b44:	00472703          	lw	a4,4(a4)
   13b48:	00c686b3          	add	a3,a3,a2
   13b4c:	00d42023          	sw	a3,0(s0)
   13b50:	00e42223          	sw	a4,4(s0)
   13b54:	0087a223          	sw	s0,4(a5)
   13b58:	f45ff06f          	j	13a9c <_free_r+0x48>
   13b5c:	00008067          	ret

00013b60 <_malloc_r>:
_malloc_r():
   13b60:	fe010113          	addi	sp,sp,-32
   13b64:	00912a23          	sw	s1,20(sp)
   13b68:	00358493          	addi	s1,a1,3
   13b6c:	ffc4f493          	andi	s1,s1,-4
   13b70:	00112e23          	sw	ra,28(sp)
   13b74:	00812c23          	sw	s0,24(sp)
   13b78:	01212823          	sw	s2,16(sp)
   13b7c:	01312623          	sw	s3,12(sp)
   13b80:	00848493          	addi	s1,s1,8
   13b84:	00c00793          	li	a5,12
   13b88:	06f4fa63          	bgeu	s1,a5,13bfc <_malloc_r+0x9c>
   13b8c:	00c00493          	li	s1,12
   13b90:	06b4e863          	bltu	s1,a1,13c00 <_malloc_r+0xa0>
   13b94:	00050913          	mv	s2,a0
   13b98:	1c1000ef          	jal	ra,14558 <__malloc_lock>
   13b9c:	00002797          	auipc	a5,0x2
   13ba0:	96c78793          	addi	a5,a5,-1684 # 15508 <__malloc_free_list>
   13ba4:	0007a703          	lw	a4,0(a5)
   13ba8:	00070413          	mv	s0,a4
   13bac:	06041e63          	bnez	s0,13c28 <_malloc_r+0xc8>
   13bb0:	00002797          	auipc	a5,0x2
   13bb4:	95c78793          	addi	a5,a5,-1700 # 1550c <__malloc_sbrk_start>
   13bb8:	0007a783          	lw	a5,0(a5)
   13bbc:	00079c63          	bnez	a5,13bd4 <_malloc_r+0x74>
   13bc0:	00000593          	li	a1,0
   13bc4:	00090513          	mv	a0,s2
   13bc8:	2e4000ef          	jal	ra,13eac <_sbrk_r>
   13bcc:	00002797          	auipc	a5,0x2
   13bd0:	94a7a023          	sw	a0,-1728(a5) # 1550c <__malloc_sbrk_start>
   13bd4:	00048593          	mv	a1,s1
   13bd8:	00090513          	mv	a0,s2
   13bdc:	2d0000ef          	jal	ra,13eac <_sbrk_r>
   13be0:	fff00993          	li	s3,-1
   13be4:	0b351c63          	bne	a0,s3,13c9c <_malloc_r+0x13c>
   13be8:	00c00793          	li	a5,12
   13bec:	00f92023          	sw	a5,0(s2)
   13bf0:	00090513          	mv	a0,s2
   13bf4:	169000ef          	jal	ra,1455c <__malloc_unlock>
   13bf8:	0100006f          	j	13c08 <_malloc_r+0xa8>
   13bfc:	f804dae3          	bgez	s1,13b90 <_malloc_r+0x30>
   13c00:	00c00793          	li	a5,12
   13c04:	00f52023          	sw	a5,0(a0)
   13c08:	00000513          	li	a0,0
   13c0c:	01c12083          	lw	ra,28(sp)
   13c10:	01812403          	lw	s0,24(sp)
   13c14:	01412483          	lw	s1,20(sp)
   13c18:	01012903          	lw	s2,16(sp)
   13c1c:	00c12983          	lw	s3,12(sp)
   13c20:	02010113          	addi	sp,sp,32
   13c24:	00008067          	ret
   13c28:	00042783          	lw	a5,0(s0)
   13c2c:	409787b3          	sub	a5,a5,s1
   13c30:	0607c063          	bltz	a5,13c90 <_malloc_r+0x130>
   13c34:	00b00693          	li	a3,11
   13c38:	00f6fa63          	bgeu	a3,a5,13c4c <_malloc_r+0xec>
   13c3c:	00f42023          	sw	a5,0(s0)
   13c40:	00f40433          	add	s0,s0,a5
   13c44:	00942023          	sw	s1,0(s0)
   13c48:	0140006f          	j	13c5c <_malloc_r+0xfc>
   13c4c:	00442783          	lw	a5,4(s0)
   13c50:	02871c63          	bne	a4,s0,13c88 <_malloc_r+0x128>
   13c54:	00002717          	auipc	a4,0x2
   13c58:	8af72a23          	sw	a5,-1868(a4) # 15508 <__malloc_free_list>
   13c5c:	00090513          	mv	a0,s2
   13c60:	0fd000ef          	jal	ra,1455c <__malloc_unlock>
   13c64:	00b40513          	addi	a0,s0,11
   13c68:	00440793          	addi	a5,s0,4
   13c6c:	ff857513          	andi	a0,a0,-8
   13c70:	40f50733          	sub	a4,a0,a5
   13c74:	f8070ce3          	beqz	a4,13c0c <_malloc_r+0xac>
   13c78:	00e40433          	add	s0,s0,a4
   13c7c:	40a787b3          	sub	a5,a5,a0
   13c80:	00f42023          	sw	a5,0(s0)
   13c84:	f89ff06f          	j	13c0c <_malloc_r+0xac>
   13c88:	00f72223          	sw	a5,4(a4)
   13c8c:	fd1ff06f          	j	13c5c <_malloc_r+0xfc>
   13c90:	00040713          	mv	a4,s0
   13c94:	00442403          	lw	s0,4(s0)
   13c98:	f15ff06f          	j	13bac <_malloc_r+0x4c>
   13c9c:	00350413          	addi	s0,a0,3
   13ca0:	ffc47413          	andi	s0,s0,-4
   13ca4:	fa8500e3          	beq	a0,s0,13c44 <_malloc_r+0xe4>
   13ca8:	40a405b3          	sub	a1,s0,a0
   13cac:	00090513          	mv	a0,s2
   13cb0:	1fc000ef          	jal	ra,13eac <_sbrk_r>
   13cb4:	f93518e3          	bne	a0,s3,13c44 <_malloc_r+0xe4>
   13cb8:	f31ff06f          	j	13be8 <_malloc_r+0x88>

00013cbc <iprintf>:
printf():
   13cbc:	fc010113          	addi	sp,sp,-64
   13cc0:	02f12a23          	sw	a5,52(sp)
   13cc4:	02b12223          	sw	a1,36(sp)
   13cc8:	02c12423          	sw	a2,40(sp)
   13ccc:	02d12623          	sw	a3,44(sp)
   13cd0:	02e12823          	sw	a4,48(sp)
   13cd4:	03012c23          	sw	a6,56(sp)
   13cd8:	03112e23          	sw	a7,60(sp)
   13cdc:	00002797          	auipc	a5,0x2
   13ce0:	81878793          	addi	a5,a5,-2024 # 154f4 <_impure_ptr>
   13ce4:	00812c23          	sw	s0,24(sp)
   13ce8:	0007a403          	lw	s0,0(a5)
   13cec:	00912a23          	sw	s1,20(sp)
   13cf0:	00112e23          	sw	ra,28(sp)
   13cf4:	00050493          	mv	s1,a0
   13cf8:	00040a63          	beqz	s0,13d0c <iprintf+0x50>
   13cfc:	01842783          	lw	a5,24(s0)
   13d00:	00079663          	bnez	a5,13d0c <iprintf+0x50>
   13d04:	00040513          	mv	a0,s0
   13d08:	a35ff0ef          	jal	ra,1373c <__sinit>
   13d0c:	00842583          	lw	a1,8(s0)
   13d10:	02410693          	addi	a3,sp,36
   13d14:	00048613          	mv	a2,s1
   13d18:	00040513          	mv	a0,s0
   13d1c:	00d12623          	sw	a3,12(sp)
   13d20:	0f1000ef          	jal	ra,14610 <_vfiprintf_r>
   13d24:	01c12083          	lw	ra,28(sp)
   13d28:	01812403          	lw	s0,24(sp)
   13d2c:	01412483          	lw	s1,20(sp)
   13d30:	04010113          	addi	sp,sp,64
   13d34:	00008067          	ret

00013d38 <_puts_r>:
_puts_r():
   13d38:	fe010113          	addi	sp,sp,-32
   13d3c:	00912a23          	sw	s1,20(sp)
   13d40:	01212823          	sw	s2,16(sp)
   13d44:	00112e23          	sw	ra,28(sp)
   13d48:	00812c23          	sw	s0,24(sp)
   13d4c:	01312623          	sw	s3,12(sp)
   13d50:	01412423          	sw	s4,8(sp)
   13d54:	00050493          	mv	s1,a0
   13d58:	00058913          	mv	s2,a1
   13d5c:	00050863          	beqz	a0,13d6c <_puts_r+0x34>
   13d60:	01852783          	lw	a5,24(a0)
   13d64:	00079463          	bnez	a5,13d6c <_puts_r+0x34>
   13d68:	9d5ff0ef          	jal	ra,1373c <__sinit>
   13d6c:	0184a783          	lw	a5,24(s1)
   13d70:	0084a403          	lw	s0,8(s1)
   13d74:	00079663          	bnez	a5,13d80 <_puts_r+0x48>
   13d78:	00048513          	mv	a0,s1
   13d7c:	9c1ff0ef          	jal	ra,1373c <__sinit>
   13d80:	00001797          	auipc	a5,0x1
   13d84:	5b878793          	addi	a5,a5,1464 # 15338 <__sf_fake_stdin>
   13d88:	04f41e63          	bne	s0,a5,13de4 <_puts_r+0xac>
   13d8c:	0044a403          	lw	s0,4(s1)
   13d90:	00c45783          	lhu	a5,12(s0)
   13d94:	0087f793          	andi	a5,a5,8
   13d98:	06078a63          	beqz	a5,13e0c <_puts_r+0xd4>
   13d9c:	01042783          	lw	a5,16(s0)
   13da0:	06078663          	beqz	a5,13e0c <_puts_r+0xd4>
   13da4:	fff00993          	li	s3,-1
   13da8:	00a00a13          	li	s4,10
   13dac:	00842783          	lw	a5,8(s0)
   13db0:	00094583          	lbu	a1,0(s2)
   13db4:	fff78793          	addi	a5,a5,-1
   13db8:	08059463          	bnez	a1,13e40 <_puts_r+0x108>
   13dbc:	00f42423          	sw	a5,8(s0)
   13dc0:	0c07d063          	bgez	a5,13e80 <_puts_r+0x148>
   13dc4:	00040613          	mv	a2,s0
   13dc8:	00a00593          	li	a1,10
   13dcc:	00048513          	mv	a0,s1
   13dd0:	260000ef          	jal	ra,14030 <__swbuf_r>
   13dd4:	fff00793          	li	a5,-1
   13dd8:	04f50263          	beq	a0,a5,13e1c <_puts_r+0xe4>
   13ddc:	00a00513          	li	a0,10
   13de0:	0400006f          	j	13e20 <_puts_r+0xe8>
   13de4:	00001797          	auipc	a5,0x1
   13de8:	57478793          	addi	a5,a5,1396 # 15358 <__sf_fake_stdout>
   13dec:	00f41663          	bne	s0,a5,13df8 <_puts_r+0xc0>
   13df0:	0084a403          	lw	s0,8(s1)
   13df4:	f9dff06f          	j	13d90 <_puts_r+0x58>
   13df8:	00001797          	auipc	a5,0x1
   13dfc:	52078793          	addi	a5,a5,1312 # 15318 <__sf_fake_stderr>
   13e00:	f8f418e3          	bne	s0,a5,13d90 <_puts_r+0x58>
   13e04:	00c4a403          	lw	s0,12(s1)
   13e08:	f89ff06f          	j	13d90 <_puts_r+0x58>
   13e0c:	00040593          	mv	a1,s0
   13e10:	00048513          	mv	a0,s1
   13e14:	3a8000ef          	jal	ra,141bc <__swsetup_r>
   13e18:	f80506e3          	beqz	a0,13da4 <_puts_r+0x6c>
   13e1c:	fff00513          	li	a0,-1
   13e20:	01c12083          	lw	ra,28(sp)
   13e24:	01812403          	lw	s0,24(sp)
   13e28:	01412483          	lw	s1,20(sp)
   13e2c:	01012903          	lw	s2,16(sp)
   13e30:	00c12983          	lw	s3,12(sp)
   13e34:	00812a03          	lw	s4,8(sp)
   13e38:	02010113          	addi	sp,sp,32
   13e3c:	00008067          	ret
   13e40:	00f42423          	sw	a5,8(s0)
   13e44:	00190913          	addi	s2,s2,1
   13e48:	0007d863          	bgez	a5,13e58 <_puts_r+0x120>
   13e4c:	01842703          	lw	a4,24(s0)
   13e50:	00e7ce63          	blt	a5,a4,13e6c <_puts_r+0x134>
   13e54:	01458c63          	beq	a1,s4,13e6c <_puts_r+0x134>
   13e58:	00042783          	lw	a5,0(s0)
   13e5c:	00178713          	addi	a4,a5,1
   13e60:	00e42023          	sw	a4,0(s0)
   13e64:	00b78023          	sb	a1,0(a5)
   13e68:	f45ff06f          	j	13dac <_puts_r+0x74>
   13e6c:	00040613          	mv	a2,s0
   13e70:	00048513          	mv	a0,s1
   13e74:	1bc000ef          	jal	ra,14030 <__swbuf_r>
   13e78:	f3351ae3          	bne	a0,s3,13dac <_puts_r+0x74>
   13e7c:	fa1ff06f          	j	13e1c <_puts_r+0xe4>
   13e80:	00042783          	lw	a5,0(s0)
   13e84:	00178713          	addi	a4,a5,1
   13e88:	00e42023          	sw	a4,0(s0)
   13e8c:	00a00713          	li	a4,10
   13e90:	00e78023          	sb	a4,0(a5)
   13e94:	f49ff06f          	j	13ddc <_puts_r+0xa4>

00013e98 <puts>:
puts():
   13e98:	00001797          	auipc	a5,0x1
   13e9c:	65c78793          	addi	a5,a5,1628 # 154f4 <_impure_ptr>
   13ea0:	00050593          	mv	a1,a0
   13ea4:	0007a503          	lw	a0,0(a5)
   13ea8:	e91ff06f          	j	13d38 <_puts_r>

00013eac <_sbrk_r>:
_sbrk_r():
   13eac:	ff010113          	addi	sp,sp,-16
   13eb0:	00812423          	sw	s0,8(sp)
   13eb4:	00050413          	mv	s0,a0
   13eb8:	00058513          	mv	a0,a1
   13ebc:	00001797          	auipc	a5,0x1
   13ec0:	7407a223          	sw	zero,1860(a5) # 15600 <errno>
   13ec4:	00112623          	sw	ra,12(sp)
   13ec8:	bd0fc0ef          	jal	ra,10298 <_sbrk>
   13ecc:	fff00793          	li	a5,-1
   13ed0:	00f51c63          	bne	a0,a5,13ee8 <_sbrk_r+0x3c>
   13ed4:	00001797          	auipc	a5,0x1
   13ed8:	72c78793          	addi	a5,a5,1836 # 15600 <errno>
   13edc:	0007a783          	lw	a5,0(a5)
   13ee0:	00078463          	beqz	a5,13ee8 <_sbrk_r+0x3c>
   13ee4:	00f42023          	sw	a5,0(s0)
   13ee8:	00c12083          	lw	ra,12(sp)
   13eec:	00812403          	lw	s0,8(sp)
   13ef0:	01010113          	addi	sp,sp,16
   13ef4:	00008067          	ret

00013ef8 <__sread>:
__sread():
   13ef8:	ff010113          	addi	sp,sp,-16
   13efc:	00812423          	sw	s0,8(sp)
   13f00:	00058413          	mv	s0,a1
   13f04:	00e59583          	lh	a1,14(a1)
   13f08:	00112623          	sw	ra,12(sp)
   13f0c:	048010ef          	jal	ra,14f54 <_read_r>
   13f10:	02054063          	bltz	a0,13f30 <__sread+0x38>
   13f14:	05442783          	lw	a5,84(s0)
   13f18:	00a787b3          	add	a5,a5,a0
   13f1c:	04f42a23          	sw	a5,84(s0)
   13f20:	00c12083          	lw	ra,12(sp)
   13f24:	00812403          	lw	s0,8(sp)
   13f28:	01010113          	addi	sp,sp,16
   13f2c:	00008067          	ret
   13f30:	00c45783          	lhu	a5,12(s0)
   13f34:	fffff737          	lui	a4,0xfffff
   13f38:	fff70713          	addi	a4,a4,-1 # ffffefff <__freertos_irq_stack_top+0xfffc09ef>
   13f3c:	00e7f7b3          	and	a5,a5,a4
   13f40:	00f41623          	sh	a5,12(s0)
   13f44:	fddff06f          	j	13f20 <__sread+0x28>

00013f48 <__swrite>:
__swrite():
   13f48:	00c5d783          	lhu	a5,12(a1)
   13f4c:	fe010113          	addi	sp,sp,-32
   13f50:	00812c23          	sw	s0,24(sp)
   13f54:	00912a23          	sw	s1,20(sp)
   13f58:	01212823          	sw	s2,16(sp)
   13f5c:	01312623          	sw	s3,12(sp)
   13f60:	00112e23          	sw	ra,28(sp)
   13f64:	1007f793          	andi	a5,a5,256
   13f68:	00050493          	mv	s1,a0
   13f6c:	00058413          	mv	s0,a1
   13f70:	00060913          	mv	s2,a2
   13f74:	00068993          	mv	s3,a3
   13f78:	00078a63          	beqz	a5,13f8c <__swrite+0x44>
   13f7c:	00e59583          	lh	a1,14(a1)
   13f80:	00200693          	li	a3,2
   13f84:	00000613          	li	a2,0
   13f88:	400000ef          	jal	ra,14388 <_lseek_r>
   13f8c:	00c45783          	lhu	a5,12(s0)
   13f90:	fffff737          	lui	a4,0xfffff
   13f94:	fff70713          	addi	a4,a4,-1 # ffffefff <__freertos_irq_stack_top+0xfffc09ef>
   13f98:	00e7f7b3          	and	a5,a5,a4
   13f9c:	00f41623          	sh	a5,12(s0)
   13fa0:	00e41583          	lh	a1,14(s0)
   13fa4:	01812403          	lw	s0,24(sp)
   13fa8:	01c12083          	lw	ra,28(sp)
   13fac:	00098693          	mv	a3,s3
   13fb0:	00090613          	mv	a2,s2
   13fb4:	00c12983          	lw	s3,12(sp)
   13fb8:	01012903          	lw	s2,16(sp)
   13fbc:	00048513          	mv	a0,s1
   13fc0:	01412483          	lw	s1,20(sp)
   13fc4:	02010113          	addi	sp,sp,32
   13fc8:	1a00006f          	j	14168 <_write_r>

00013fcc <__sseek>:
__sseek():
   13fcc:	ff010113          	addi	sp,sp,-16
   13fd0:	00812423          	sw	s0,8(sp)
   13fd4:	00058413          	mv	s0,a1
   13fd8:	00e59583          	lh	a1,14(a1)
   13fdc:	00112623          	sw	ra,12(sp)
   13fe0:	3a8000ef          	jal	ra,14388 <_lseek_r>
   13fe4:	fff00793          	li	a5,-1
   13fe8:	00c45703          	lhu	a4,12(s0)
   13fec:	02f51263          	bne	a0,a5,14010 <__sseek+0x44>
   13ff0:	fffff7b7          	lui	a5,0xfffff
   13ff4:	fff78793          	addi	a5,a5,-1 # ffffefff <__freertos_irq_stack_top+0xfffc09ef>
   13ff8:	00e7f7b3          	and	a5,a5,a4
   13ffc:	00f41623          	sh	a5,12(s0)
   14000:	00c12083          	lw	ra,12(sp)
   14004:	00812403          	lw	s0,8(sp)
   14008:	01010113          	addi	sp,sp,16
   1400c:	00008067          	ret
   14010:	000017b7          	lui	a5,0x1
   14014:	00f767b3          	or	a5,a4,a5
   14018:	00f41623          	sh	a5,12(s0)
   1401c:	04a42a23          	sw	a0,84(s0)
   14020:	fe1ff06f          	j	14000 <__sseek+0x34>

00014024 <__sclose>:
__sclose():
   14024:	00e59583          	lh	a1,14(a1)
   14028:	3140006f          	j	1433c <_close_r>

0001402c <isatty>:
isatty():
   1402c:	950fc06f          	j	1017c <_isatty>

00014030 <__swbuf_r>:
__swbuf_r():
   14030:	fe010113          	addi	sp,sp,-32
   14034:	00812c23          	sw	s0,24(sp)
   14038:	00912a23          	sw	s1,20(sp)
   1403c:	01212823          	sw	s2,16(sp)
   14040:	00112e23          	sw	ra,28(sp)
   14044:	01312623          	sw	s3,12(sp)
   14048:	00050493          	mv	s1,a0
   1404c:	00058913          	mv	s2,a1
   14050:	00060413          	mv	s0,a2
   14054:	00050863          	beqz	a0,14064 <__swbuf_r+0x34>
   14058:	01852783          	lw	a5,24(a0)
   1405c:	00079463          	bnez	a5,14064 <__swbuf_r+0x34>
   14060:	edcff0ef          	jal	ra,1373c <__sinit>
   14064:	00001797          	auipc	a5,0x1
   14068:	2d478793          	addi	a5,a5,724 # 15338 <__sf_fake_stdin>
   1406c:	0af41e63          	bne	s0,a5,14128 <__swbuf_r+0xf8>
   14070:	0044a403          	lw	s0,4(s1)
   14074:	01842783          	lw	a5,24(s0)
   14078:	00f42423          	sw	a5,8(s0)
   1407c:	00c45783          	lhu	a5,12(s0)
   14080:	0087f793          	andi	a5,a5,8
   14084:	0c078663          	beqz	a5,14150 <__swbuf_r+0x120>
   14088:	01042783          	lw	a5,16(s0)
   1408c:	0c078263          	beqz	a5,14150 <__swbuf_r+0x120>
   14090:	01042783          	lw	a5,16(s0)
   14094:	00042503          	lw	a0,0(s0)
   14098:	0ff97993          	andi	s3,s2,255
   1409c:	0ff97913          	andi	s2,s2,255
   140a0:	40f50533          	sub	a0,a0,a5
   140a4:	01442783          	lw	a5,20(s0)
   140a8:	00f54a63          	blt	a0,a5,140bc <__swbuf_r+0x8c>
   140ac:	00040593          	mv	a1,s0
   140b0:	00048513          	mv	a0,s1
   140b4:	ce8ff0ef          	jal	ra,1359c <_fflush_r>
   140b8:	0a051463          	bnez	a0,14160 <__swbuf_r+0x130>
   140bc:	00842783          	lw	a5,8(s0)
   140c0:	00150513          	addi	a0,a0,1
   140c4:	fff78793          	addi	a5,a5,-1
   140c8:	00f42423          	sw	a5,8(s0)
   140cc:	00042783          	lw	a5,0(s0)
   140d0:	00178713          	addi	a4,a5,1
   140d4:	00e42023          	sw	a4,0(s0)
   140d8:	01378023          	sb	s3,0(a5)
   140dc:	01442783          	lw	a5,20(s0)
   140e0:	00a78c63          	beq	a5,a0,140f8 <__swbuf_r+0xc8>
   140e4:	00c45783          	lhu	a5,12(s0)
   140e8:	0017f793          	andi	a5,a5,1
   140ec:	00078e63          	beqz	a5,14108 <__swbuf_r+0xd8>
   140f0:	00a00793          	li	a5,10
   140f4:	00f91a63          	bne	s2,a5,14108 <__swbuf_r+0xd8>
   140f8:	00040593          	mv	a1,s0
   140fc:	00048513          	mv	a0,s1
   14100:	c9cff0ef          	jal	ra,1359c <_fflush_r>
   14104:	04051e63          	bnez	a0,14160 <__swbuf_r+0x130>
   14108:	01c12083          	lw	ra,28(sp)
   1410c:	01812403          	lw	s0,24(sp)
   14110:	00090513          	mv	a0,s2
   14114:	01412483          	lw	s1,20(sp)
   14118:	01012903          	lw	s2,16(sp)
   1411c:	00c12983          	lw	s3,12(sp)
   14120:	02010113          	addi	sp,sp,32
   14124:	00008067          	ret
   14128:	00001797          	auipc	a5,0x1
   1412c:	23078793          	addi	a5,a5,560 # 15358 <__sf_fake_stdout>
   14130:	00f41663          	bne	s0,a5,1413c <__swbuf_r+0x10c>
   14134:	0084a403          	lw	s0,8(s1)
   14138:	f3dff06f          	j	14074 <__swbuf_r+0x44>
   1413c:	00001797          	auipc	a5,0x1
   14140:	1dc78793          	addi	a5,a5,476 # 15318 <__sf_fake_stderr>
   14144:	f2f418e3          	bne	s0,a5,14074 <__swbuf_r+0x44>
   14148:	00c4a403          	lw	s0,12(s1)
   1414c:	f29ff06f          	j	14074 <__swbuf_r+0x44>
   14150:	00040593          	mv	a1,s0
   14154:	00048513          	mv	a0,s1
   14158:	064000ef          	jal	ra,141bc <__swsetup_r>
   1415c:	f2050ae3          	beqz	a0,14090 <__swbuf_r+0x60>
   14160:	fff00913          	li	s2,-1
   14164:	fa5ff06f          	j	14108 <__swbuf_r+0xd8>

00014168 <_write_r>:
_write_r():
   14168:	ff010113          	addi	sp,sp,-16
   1416c:	00812423          	sw	s0,8(sp)
   14170:	00050413          	mv	s0,a0
   14174:	00058513          	mv	a0,a1
   14178:	00060593          	mv	a1,a2
   1417c:	00068613          	mv	a2,a3
   14180:	00001797          	auipc	a5,0x1
   14184:	4807a023          	sw	zero,1152(a5) # 15600 <errno>
   14188:	00112623          	sw	ra,12(sp)
   1418c:	9bcfc0ef          	jal	ra,10348 <_write>
   14190:	fff00793          	li	a5,-1
   14194:	00f51c63          	bne	a0,a5,141ac <_write_r+0x44>
   14198:	00001797          	auipc	a5,0x1
   1419c:	46878793          	addi	a5,a5,1128 # 15600 <errno>
   141a0:	0007a783          	lw	a5,0(a5)
   141a4:	00078463          	beqz	a5,141ac <_write_r+0x44>
   141a8:	00f42023          	sw	a5,0(s0)
   141ac:	00c12083          	lw	ra,12(sp)
   141b0:	00812403          	lw	s0,8(sp)
   141b4:	01010113          	addi	sp,sp,16
   141b8:	00008067          	ret

000141bc <__swsetup_r>:
__swsetup_r():
   141bc:	ff010113          	addi	sp,sp,-16
   141c0:	00001797          	auipc	a5,0x1
   141c4:	33478793          	addi	a5,a5,820 # 154f4 <_impure_ptr>
   141c8:	00912223          	sw	s1,4(sp)
   141cc:	0007a483          	lw	s1,0(a5)
   141d0:	00812423          	sw	s0,8(sp)
   141d4:	01212023          	sw	s2,0(sp)
   141d8:	00112623          	sw	ra,12(sp)
   141dc:	00050913          	mv	s2,a0
   141e0:	00058413          	mv	s0,a1
   141e4:	00048a63          	beqz	s1,141f8 <__swsetup_r+0x3c>
   141e8:	0184a783          	lw	a5,24(s1)
   141ec:	00079663          	bnez	a5,141f8 <__swsetup_r+0x3c>
   141f0:	00048513          	mv	a0,s1
   141f4:	d48ff0ef          	jal	ra,1373c <__sinit>
   141f8:	00001797          	auipc	a5,0x1
   141fc:	14078793          	addi	a5,a5,320 # 15338 <__sf_fake_stdin>
   14200:	04f41863          	bne	s0,a5,14250 <__swsetup_r+0x94>
   14204:	0044a403          	lw	s0,4(s1)
   14208:	00c41703          	lh	a4,12(s0)
   1420c:	01071793          	slli	a5,a4,0x10
   14210:	0107d793          	srli	a5,a5,0x10
   14214:	0087f693          	andi	a3,a5,8
   14218:	0a069463          	bnez	a3,142c0 <__swsetup_r+0x104>
   1421c:	0107f693          	andi	a3,a5,16
   14220:	04069c63          	bnez	a3,14278 <__swsetup_r+0xbc>
   14224:	00900793          	li	a5,9
   14228:	00f92023          	sw	a5,0(s2)
   1422c:	04076713          	ori	a4,a4,64
   14230:	00e41623          	sh	a4,12(s0)
   14234:	fff00513          	li	a0,-1
   14238:	00c12083          	lw	ra,12(sp)
   1423c:	00812403          	lw	s0,8(sp)
   14240:	00412483          	lw	s1,4(sp)
   14244:	00012903          	lw	s2,0(sp)
   14248:	01010113          	addi	sp,sp,16
   1424c:	00008067          	ret
   14250:	00001797          	auipc	a5,0x1
   14254:	10878793          	addi	a5,a5,264 # 15358 <__sf_fake_stdout>
   14258:	00f41663          	bne	s0,a5,14264 <__swsetup_r+0xa8>
   1425c:	0084a403          	lw	s0,8(s1)
   14260:	fa9ff06f          	j	14208 <__swsetup_r+0x4c>
   14264:	00001797          	auipc	a5,0x1
   14268:	0b478793          	addi	a5,a5,180 # 15318 <__sf_fake_stderr>
   1426c:	f8f41ee3          	bne	s0,a5,14208 <__swsetup_r+0x4c>
   14270:	00c4a403          	lw	s0,12(s1)
   14274:	f95ff06f          	j	14208 <__swsetup_r+0x4c>
   14278:	0047f793          	andi	a5,a5,4
   1427c:	02078c63          	beqz	a5,142b4 <__swsetup_r+0xf8>
   14280:	03442583          	lw	a1,52(s0)
   14284:	00058c63          	beqz	a1,1429c <__swsetup_r+0xe0>
   14288:	04440793          	addi	a5,s0,68
   1428c:	00f58663          	beq	a1,a5,14298 <__swsetup_r+0xdc>
   14290:	00090513          	mv	a0,s2
   14294:	fc0ff0ef          	jal	ra,13a54 <_free_r>
   14298:	02042a23          	sw	zero,52(s0)
   1429c:	00c45783          	lhu	a5,12(s0)
   142a0:	00042223          	sw	zero,4(s0)
   142a4:	fdb7f793          	andi	a5,a5,-37
   142a8:	00f41623          	sh	a5,12(s0)
   142ac:	01042783          	lw	a5,16(s0)
   142b0:	00f42023          	sw	a5,0(s0)
   142b4:	00c45783          	lhu	a5,12(s0)
   142b8:	0087e793          	ori	a5,a5,8
   142bc:	00f41623          	sh	a5,12(s0)
   142c0:	01042783          	lw	a5,16(s0)
   142c4:	02079063          	bnez	a5,142e4 <__swsetup_r+0x128>
   142c8:	00c45783          	lhu	a5,12(s0)
   142cc:	20000713          	li	a4,512
   142d0:	2807f793          	andi	a5,a5,640
   142d4:	00e78863          	beq	a5,a4,142e4 <__swsetup_r+0x128>
   142d8:	00040593          	mv	a1,s0
   142dc:	00090513          	mv	a0,s2
   142e0:	188000ef          	jal	ra,14468 <__smakebuf_r>
   142e4:	00c45783          	lhu	a5,12(s0)
   142e8:	0017f713          	andi	a4,a5,1
   142ec:	02070c63          	beqz	a4,14324 <__swsetup_r+0x168>
   142f0:	01442783          	lw	a5,20(s0)
   142f4:	00042423          	sw	zero,8(s0)
   142f8:	40f007b3          	neg	a5,a5
   142fc:	00f42c23          	sw	a5,24(s0)
   14300:	01042783          	lw	a5,16(s0)
   14304:	00000513          	li	a0,0
   14308:	f20798e3          	bnez	a5,14238 <__swsetup_r+0x7c>
   1430c:	00c41783          	lh	a5,12(s0)
   14310:	0807f713          	andi	a4,a5,128
   14314:	f20702e3          	beqz	a4,14238 <__swsetup_r+0x7c>
   14318:	0407e793          	ori	a5,a5,64
   1431c:	00f41623          	sh	a5,12(s0)
   14320:	f15ff06f          	j	14234 <__swsetup_r+0x78>
   14324:	0027f793          	andi	a5,a5,2
   14328:	00000713          	li	a4,0
   1432c:	00079463          	bnez	a5,14334 <__swsetup_r+0x178>
   14330:	01442703          	lw	a4,20(s0)
   14334:	00e42423          	sw	a4,8(s0)
   14338:	fc9ff06f          	j	14300 <__swsetup_r+0x144>

0001433c <_close_r>:
_close_r():
   1433c:	ff010113          	addi	sp,sp,-16
   14340:	00812423          	sw	s0,8(sp)
   14344:	00050413          	mv	s0,a0
   14348:	00058513          	mv	a0,a1
   1434c:	00001797          	auipc	a5,0x1
   14350:	2a07aa23          	sw	zero,692(a5) # 15600 <errno>
   14354:	00112623          	sw	ra,12(sp)
   14358:	d71fb0ef          	jal	ra,100c8 <_close>
   1435c:	fff00793          	li	a5,-1
   14360:	00f51c63          	bne	a0,a5,14378 <_close_r+0x3c>
   14364:	00001797          	auipc	a5,0x1
   14368:	29c78793          	addi	a5,a5,668 # 15600 <errno>
   1436c:	0007a783          	lw	a5,0(a5)
   14370:	00078463          	beqz	a5,14378 <_close_r+0x3c>
   14374:	00f42023          	sw	a5,0(s0)
   14378:	00c12083          	lw	ra,12(sp)
   1437c:	00812403          	lw	s0,8(sp)
   14380:	01010113          	addi	sp,sp,16
   14384:	00008067          	ret

00014388 <_lseek_r>:
_lseek_r():
   14388:	ff010113          	addi	sp,sp,-16
   1438c:	00812423          	sw	s0,8(sp)
   14390:	00050413          	mv	s0,a0
   14394:	00058513          	mv	a0,a1
   14398:	00060593          	mv	a1,a2
   1439c:	00068613          	mv	a2,a3
   143a0:	00001797          	auipc	a5,0x1
   143a4:	2607a023          	sw	zero,608(a5) # 15600 <errno>
   143a8:	00112623          	sw	ra,12(sp)
   143ac:	e39fb0ef          	jal	ra,101e4 <_lseek>
   143b0:	fff00793          	li	a5,-1
   143b4:	00f51c63          	bne	a0,a5,143cc <_lseek_r+0x44>
   143b8:	00001797          	auipc	a5,0x1
   143bc:	24878793          	addi	a5,a5,584 # 15600 <errno>
   143c0:	0007a783          	lw	a5,0(a5)
   143c4:	00078463          	beqz	a5,143cc <_lseek_r+0x44>
   143c8:	00f42023          	sw	a5,0(s0)
   143cc:	00c12083          	lw	ra,12(sp)
   143d0:	00812403          	lw	s0,8(sp)
   143d4:	01010113          	addi	sp,sp,16
   143d8:	00008067          	ret

000143dc <__swhatbuf_r>:
__swhatbuf_r():
   143dc:	f8010113          	addi	sp,sp,-128
   143e0:	06912a23          	sw	s1,116(sp)
   143e4:	00058493          	mv	s1,a1
   143e8:	00e59583          	lh	a1,14(a1)
   143ec:	06812c23          	sw	s0,120(sp)
   143f0:	06112e23          	sw	ra,124(sp)
   143f4:	00060413          	mv	s0,a2
   143f8:	0005de63          	bgez	a1,14414 <__swhatbuf_r+0x38>
   143fc:	00c4d783          	lhu	a5,12(s1)
   14400:	0006a023          	sw	zero,0(a3)
   14404:	0807f793          	andi	a5,a5,128
   14408:	04079063          	bnez	a5,14448 <__swhatbuf_r+0x6c>
   1440c:	40000793          	li	a5,1024
   14410:	03c0006f          	j	1444c <__swhatbuf_r+0x70>
   14414:	01810613          	addi	a2,sp,24
   14418:	00d12623          	sw	a3,12(sp)
   1441c:	38d000ef          	jal	ra,14fa8 <_fstat_r>
   14420:	00c12683          	lw	a3,12(sp)
   14424:	fc054ce3          	bltz	a0,143fc <__swhatbuf_r+0x20>
   14428:	01c12703          	lw	a4,28(sp)
   1442c:	0000f7b7          	lui	a5,0xf
   14430:	00e7f7b3          	and	a5,a5,a4
   14434:	ffffe737          	lui	a4,0xffffe
   14438:	00e787b3          	add	a5,a5,a4
   1443c:	0017b793          	seqz	a5,a5
   14440:	00f6a023          	sw	a5,0(a3)
   14444:	fc9ff06f          	j	1440c <__swhatbuf_r+0x30>
   14448:	04000793          	li	a5,64
   1444c:	00f42023          	sw	a5,0(s0)
   14450:	07c12083          	lw	ra,124(sp)
   14454:	07812403          	lw	s0,120(sp)
   14458:	07412483          	lw	s1,116(sp)
   1445c:	00000513          	li	a0,0
   14460:	08010113          	addi	sp,sp,128
   14464:	00008067          	ret

00014468 <__smakebuf_r>:
__smakebuf_r():
   14468:	00c5d783          	lhu	a5,12(a1)
   1446c:	fe010113          	addi	sp,sp,-32
   14470:	00812c23          	sw	s0,24(sp)
   14474:	00112e23          	sw	ra,28(sp)
   14478:	00912a23          	sw	s1,20(sp)
   1447c:	01212823          	sw	s2,16(sp)
   14480:	0027f793          	andi	a5,a5,2
   14484:	00058413          	mv	s0,a1
   14488:	02078863          	beqz	a5,144b8 <__smakebuf_r+0x50>
   1448c:	04740793          	addi	a5,s0,71
   14490:	00f42023          	sw	a5,0(s0)
   14494:	00f42823          	sw	a5,16(s0)
   14498:	00100793          	li	a5,1
   1449c:	00f42a23          	sw	a5,20(s0)
   144a0:	01c12083          	lw	ra,28(sp)
   144a4:	01812403          	lw	s0,24(sp)
   144a8:	01412483          	lw	s1,20(sp)
   144ac:	01012903          	lw	s2,16(sp)
   144b0:	02010113          	addi	sp,sp,32
   144b4:	00008067          	ret
   144b8:	00c10693          	addi	a3,sp,12
   144bc:	00810613          	addi	a2,sp,8
   144c0:	00050493          	mv	s1,a0
   144c4:	f19ff0ef          	jal	ra,143dc <__swhatbuf_r>
   144c8:	00812583          	lw	a1,8(sp)
   144cc:	00050913          	mv	s2,a0
   144d0:	00048513          	mv	a0,s1
   144d4:	e8cff0ef          	jal	ra,13b60 <_malloc_r>
   144d8:	02051063          	bnez	a0,144f8 <__smakebuf_r+0x90>
   144dc:	00c41783          	lh	a5,12(s0)
   144e0:	2007f713          	andi	a4,a5,512
   144e4:	fa071ee3          	bnez	a4,144a0 <__smakebuf_r+0x38>
   144e8:	ffc7f793          	andi	a5,a5,-4
   144ec:	0027e793          	ori	a5,a5,2
   144f0:	00f41623          	sh	a5,12(s0)
   144f4:	f99ff06f          	j	1448c <__smakebuf_r+0x24>
   144f8:	fffff797          	auipc	a5,0xfffff
   144fc:	1cc78793          	addi	a5,a5,460 # 136c4 <_cleanup_r>
   14500:	02f4a423          	sw	a5,40(s1)
   14504:	00c45783          	lhu	a5,12(s0)
   14508:	00a42023          	sw	a0,0(s0)
   1450c:	00a42823          	sw	a0,16(s0)
   14510:	0807e793          	ori	a5,a5,128
   14514:	00f41623          	sh	a5,12(s0)
   14518:	00812783          	lw	a5,8(sp)
   1451c:	00f42a23          	sw	a5,20(s0)
   14520:	00c12783          	lw	a5,12(sp)
   14524:	02078263          	beqz	a5,14548 <__smakebuf_r+0xe0>
   14528:	00e41583          	lh	a1,14(s0)
   1452c:	00048513          	mv	a0,s1
   14530:	2c9000ef          	jal	ra,14ff8 <_isatty_r>
   14534:	00050a63          	beqz	a0,14548 <__smakebuf_r+0xe0>
   14538:	00c45783          	lhu	a5,12(s0)
   1453c:	ffc7f793          	andi	a5,a5,-4
   14540:	0017e793          	ori	a5,a5,1
   14544:	00f41623          	sh	a5,12(s0)
   14548:	00c45783          	lhu	a5,12(s0)
   1454c:	00f96933          	or	s2,s2,a5
   14550:	01241623          	sh	s2,12(s0)
   14554:	f4dff06f          	j	144a0 <__smakebuf_r+0x38>

00014558 <__malloc_lock>:
__malloc_lock():
   14558:	00008067          	ret

0001455c <__malloc_unlock>:
__malloc_unlock():
   1455c:	00008067          	ret

00014560 <__sfputc_r>:
__sfputc_r():
   14560:	00862783          	lw	a5,8(a2)
   14564:	fff78793          	addi	a5,a5,-1
   14568:	00f62423          	sw	a5,8(a2)
   1456c:	0007dc63          	bgez	a5,14584 <__sfputc_r+0x24>
   14570:	01862703          	lw	a4,24(a2)
   14574:	00e7c663          	blt	a5,a4,14580 <__sfputc_r+0x20>
   14578:	00a00793          	li	a5,10
   1457c:	00f59463          	bne	a1,a5,14584 <__sfputc_r+0x24>
   14580:	ab1ff06f          	j	14030 <__swbuf_r>
   14584:	00062783          	lw	a5,0(a2)
   14588:	00058513          	mv	a0,a1
   1458c:	00178713          	addi	a4,a5,1
   14590:	00e62023          	sw	a4,0(a2)
   14594:	00b78023          	sb	a1,0(a5)
   14598:	00008067          	ret

0001459c <__sfputs_r>:
__sfputs_r():
   1459c:	fe010113          	addi	sp,sp,-32
   145a0:	00812c23          	sw	s0,24(sp)
   145a4:	00912a23          	sw	s1,20(sp)
   145a8:	01212823          	sw	s2,16(sp)
   145ac:	01312623          	sw	s3,12(sp)
   145b0:	01412423          	sw	s4,8(sp)
   145b4:	00112e23          	sw	ra,28(sp)
   145b8:	00050913          	mv	s2,a0
   145bc:	00058993          	mv	s3,a1
   145c0:	00060413          	mv	s0,a2
   145c4:	00d604b3          	add	s1,a2,a3
   145c8:	fff00a13          	li	s4,-1
   145cc:	00941663          	bne	s0,s1,145d8 <__sfputs_r+0x3c>
   145d0:	00000513          	li	a0,0
   145d4:	01c0006f          	j	145f0 <__sfputs_r+0x54>
   145d8:	00044583          	lbu	a1,0(s0)
   145dc:	00098613          	mv	a2,s3
   145e0:	00090513          	mv	a0,s2
   145e4:	f7dff0ef          	jal	ra,14560 <__sfputc_r>
   145e8:	00140413          	addi	s0,s0,1
   145ec:	ff4510e3          	bne	a0,s4,145cc <__sfputs_r+0x30>
   145f0:	01c12083          	lw	ra,28(sp)
   145f4:	01812403          	lw	s0,24(sp)
   145f8:	01412483          	lw	s1,20(sp)
   145fc:	01012903          	lw	s2,16(sp)
   14600:	00c12983          	lw	s3,12(sp)
   14604:	00812a03          	lw	s4,8(sp)
   14608:	02010113          	addi	sp,sp,32
   1460c:	00008067          	ret

00014610 <_vfiprintf_r>:
_vfiprintf_r():
   14610:	f6010113          	addi	sp,sp,-160
   14614:	08812c23          	sw	s0,152(sp)
   14618:	08912a23          	sw	s1,148(sp)
   1461c:	09212823          	sw	s2,144(sp)
   14620:	09312623          	sw	s3,140(sp)
   14624:	08112e23          	sw	ra,156(sp)
   14628:	09412423          	sw	s4,136(sp)
   1462c:	09512223          	sw	s5,132(sp)
   14630:	09612023          	sw	s6,128(sp)
   14634:	07712e23          	sw	s7,124(sp)
   14638:	07812c23          	sw	s8,120(sp)
   1463c:	07912a23          	sw	s9,116(sp)
   14640:	00050993          	mv	s3,a0
   14644:	00058493          	mv	s1,a1
   14648:	00060913          	mv	s2,a2
   1464c:	00068413          	mv	s0,a3
   14650:	00050863          	beqz	a0,14660 <_vfiprintf_r+0x50>
   14654:	01852783          	lw	a5,24(a0)
   14658:	00079463          	bnez	a5,14660 <_vfiprintf_r+0x50>
   1465c:	8e0ff0ef          	jal	ra,1373c <__sinit>
   14660:	00001797          	auipc	a5,0x1
   14664:	cd878793          	addi	a5,a5,-808 # 15338 <__sf_fake_stdin>
   14668:	12f49263          	bne	s1,a5,1478c <_vfiprintf_r+0x17c>
   1466c:	0049a483          	lw	s1,4(s3)
   14670:	00c4d783          	lhu	a5,12(s1)
   14674:	0087f793          	andi	a5,a5,8
   14678:	12078e63          	beqz	a5,147b4 <_vfiprintf_r+0x1a4>
   1467c:	0104a783          	lw	a5,16(s1)
   14680:	12078a63          	beqz	a5,147b4 <_vfiprintf_r+0x1a4>
   14684:	02000793          	li	a5,32
   14688:	02f104a3          	sb	a5,41(sp)
   1468c:	03000793          	li	a5,48
   14690:	02012223          	sw	zero,36(sp)
   14694:	02f10523          	sb	a5,42(sp)
   14698:	00812623          	sw	s0,12(sp)
   1469c:	02500b93          	li	s7,37
   146a0:	00001a97          	auipc	s5,0x1
   146a4:	cd8a8a93          	addi	s5,s5,-808 # 15378 <__sf_fake_stdout+0x20>
   146a8:	00100c13          	li	s8,1
   146ac:	00a00b13          	li	s6,10
   146b0:	00090413          	mv	s0,s2
   146b4:	00044783          	lbu	a5,0(s0)
   146b8:	00078463          	beqz	a5,146c0 <_vfiprintf_r+0xb0>
   146bc:	15779063          	bne	a5,s7,147fc <_vfiprintf_r+0x1ec>
   146c0:	41240cb3          	sub	s9,s0,s2
   146c4:	020c8663          	beqz	s9,146f0 <_vfiprintf_r+0xe0>
   146c8:	000c8693          	mv	a3,s9
   146cc:	00090613          	mv	a2,s2
   146d0:	00048593          	mv	a1,s1
   146d4:	00098513          	mv	a0,s3
   146d8:	ec5ff0ef          	jal	ra,1459c <__sfputs_r>
   146dc:	fff00793          	li	a5,-1
   146e0:	2cf50263          	beq	a0,a5,149a4 <_vfiprintf_r+0x394>
   146e4:	02412683          	lw	a3,36(sp)
   146e8:	019686b3          	add	a3,a3,s9
   146ec:	02d12223          	sw	a3,36(sp)
   146f0:	00044783          	lbu	a5,0(s0)
   146f4:	2a078863          	beqz	a5,149a4 <_vfiprintf_r+0x394>
   146f8:	fff00793          	li	a5,-1
   146fc:	00140913          	addi	s2,s0,1
   14700:	00012823          	sw	zero,16(sp)
   14704:	00012e23          	sw	zero,28(sp)
   14708:	00f12a23          	sw	a5,20(sp)
   1470c:	00012c23          	sw	zero,24(sp)
   14710:	040109a3          	sb	zero,83(sp)
   14714:	06012423          	sw	zero,104(sp)
   14718:	00094583          	lbu	a1,0(s2)
   1471c:	00500613          	li	a2,5
   14720:	000a8513          	mv	a0,s5
   14724:	121000ef          	jal	ra,15044 <memchr>
   14728:	00190413          	addi	s0,s2,1
   1472c:	01012783          	lw	a5,16(sp)
   14730:	0c051a63          	bnez	a0,14804 <_vfiprintf_r+0x1f4>
   14734:	0107f713          	andi	a4,a5,16
   14738:	00070663          	beqz	a4,14744 <_vfiprintf_r+0x134>
   1473c:	02000713          	li	a4,32
   14740:	04e109a3          	sb	a4,83(sp)
   14744:	0087f713          	andi	a4,a5,8
   14748:	00070663          	beqz	a4,14754 <_vfiprintf_r+0x144>
   1474c:	02b00713          	li	a4,43
   14750:	04e109a3          	sb	a4,83(sp)
   14754:	00094683          	lbu	a3,0(s2)
   14758:	02a00713          	li	a4,42
   1475c:	0ce68063          	beq	a3,a4,1481c <_vfiprintf_r+0x20c>
   14760:	01c12783          	lw	a5,28(sp)
   14764:	00090413          	mv	s0,s2
   14768:	00000693          	li	a3,0
   1476c:	00900613          	li	a2,9
   14770:	00044703          	lbu	a4,0(s0)
   14774:	00140593          	addi	a1,s0,1
   14778:	fd070713          	addi	a4,a4,-48 # ffffdfd0 <__freertos_irq_stack_top+0xfffbf9c0>
   1477c:	10e67263          	bgeu	a2,a4,14880 <_vfiprintf_r+0x270>
   14780:	0a068a63          	beqz	a3,14834 <_vfiprintf_r+0x224>
   14784:	00f12e23          	sw	a5,28(sp)
   14788:	0ac0006f          	j	14834 <_vfiprintf_r+0x224>
   1478c:	00001797          	auipc	a5,0x1
   14790:	bcc78793          	addi	a5,a5,-1076 # 15358 <__sf_fake_stdout>
   14794:	00f49663          	bne	s1,a5,147a0 <_vfiprintf_r+0x190>
   14798:	0089a483          	lw	s1,8(s3)
   1479c:	ed5ff06f          	j	14670 <_vfiprintf_r+0x60>
   147a0:	00001797          	auipc	a5,0x1
   147a4:	b7878793          	addi	a5,a5,-1160 # 15318 <__sf_fake_stderr>
   147a8:	ecf494e3          	bne	s1,a5,14670 <_vfiprintf_r+0x60>
   147ac:	00c9a483          	lw	s1,12(s3)
   147b0:	ec1ff06f          	j	14670 <_vfiprintf_r+0x60>
   147b4:	00048593          	mv	a1,s1
   147b8:	00098513          	mv	a0,s3
   147bc:	a01ff0ef          	jal	ra,141bc <__swsetup_r>
   147c0:	ec0502e3          	beqz	a0,14684 <_vfiprintf_r+0x74>
   147c4:	fff00513          	li	a0,-1
   147c8:	09c12083          	lw	ra,156(sp)
   147cc:	09812403          	lw	s0,152(sp)
   147d0:	09412483          	lw	s1,148(sp)
   147d4:	09012903          	lw	s2,144(sp)
   147d8:	08c12983          	lw	s3,140(sp)
   147dc:	08812a03          	lw	s4,136(sp)
   147e0:	08412a83          	lw	s5,132(sp)
   147e4:	08012b03          	lw	s6,128(sp)
   147e8:	07c12b83          	lw	s7,124(sp)
   147ec:	07812c03          	lw	s8,120(sp)
   147f0:	07412c83          	lw	s9,116(sp)
   147f4:	0a010113          	addi	sp,sp,160
   147f8:	00008067          	ret
   147fc:	00140413          	addi	s0,s0,1
   14800:	eb5ff06f          	j	146b4 <_vfiprintf_r+0xa4>
   14804:	41550533          	sub	a0,a0,s5
   14808:	00ac1533          	sll	a0,s8,a0
   1480c:	00a7e7b3          	or	a5,a5,a0
   14810:	00f12823          	sw	a5,16(sp)
   14814:	00040913          	mv	s2,s0
   14818:	f01ff06f          	j	14718 <_vfiprintf_r+0x108>
   1481c:	00c12703          	lw	a4,12(sp)
   14820:	00470693          	addi	a3,a4,4
   14824:	00072703          	lw	a4,0(a4)
   14828:	00d12623          	sw	a3,12(sp)
   1482c:	04074063          	bltz	a4,1486c <_vfiprintf_r+0x25c>
   14830:	00e12e23          	sw	a4,28(sp)
   14834:	00044703          	lbu	a4,0(s0)
   14838:	02e00793          	li	a5,46
   1483c:	08f71463          	bne	a4,a5,148c4 <_vfiprintf_r+0x2b4>
   14840:	00144703          	lbu	a4,1(s0)
   14844:	02a00793          	li	a5,42
   14848:	04f71a63          	bne	a4,a5,1489c <_vfiprintf_r+0x28c>
   1484c:	00c12783          	lw	a5,12(sp)
   14850:	00240413          	addi	s0,s0,2
   14854:	00478713          	addi	a4,a5,4
   14858:	0007a783          	lw	a5,0(a5)
   1485c:	00e12623          	sw	a4,12(sp)
   14860:	0207ca63          	bltz	a5,14894 <_vfiprintf_r+0x284>
   14864:	00f12a23          	sw	a5,20(sp)
   14868:	05c0006f          	j	148c4 <_vfiprintf_r+0x2b4>
   1486c:	40e00733          	neg	a4,a4
   14870:	0027e793          	ori	a5,a5,2
   14874:	00e12e23          	sw	a4,28(sp)
   14878:	00f12823          	sw	a5,16(sp)
   1487c:	fb9ff06f          	j	14834 <_vfiprintf_r+0x224>
   14880:	036787b3          	mul	a5,a5,s6
   14884:	00100693          	li	a3,1
   14888:	00058413          	mv	s0,a1
   1488c:	00e787b3          	add	a5,a5,a4
   14890:	ee1ff06f          	j	14770 <_vfiprintf_r+0x160>
   14894:	fff00793          	li	a5,-1
   14898:	fcdff06f          	j	14864 <_vfiprintf_r+0x254>
   1489c:	00140413          	addi	s0,s0,1
   148a0:	00012a23          	sw	zero,20(sp)
   148a4:	00000693          	li	a3,0
   148a8:	00000793          	li	a5,0
   148ac:	00900613          	li	a2,9
   148b0:	00044703          	lbu	a4,0(s0)
   148b4:	00140593          	addi	a1,s0,1
   148b8:	fd070713          	addi	a4,a4,-48
   148bc:	08e67c63          	bgeu	a2,a4,14954 <_vfiprintf_r+0x344>
   148c0:	fa0692e3          	bnez	a3,14864 <_vfiprintf_r+0x254>
   148c4:	00044583          	lbu	a1,0(s0)
   148c8:	00300613          	li	a2,3
   148cc:	00001517          	auipc	a0,0x1
   148d0:	ab450513          	addi	a0,a0,-1356 # 15380 <__sf_fake_stdout+0x28>
   148d4:	770000ef          	jal	ra,15044 <memchr>
   148d8:	02050463          	beqz	a0,14900 <_vfiprintf_r+0x2f0>
   148dc:	00001797          	auipc	a5,0x1
   148e0:	aa478793          	addi	a5,a5,-1372 # 15380 <__sf_fake_stdout+0x28>
   148e4:	40f50533          	sub	a0,a0,a5
   148e8:	04000793          	li	a5,64
   148ec:	00a797b3          	sll	a5,a5,a0
   148f0:	01012503          	lw	a0,16(sp)
   148f4:	00140413          	addi	s0,s0,1
   148f8:	00f56533          	or	a0,a0,a5
   148fc:	00a12823          	sw	a0,16(sp)
   14900:	00044583          	lbu	a1,0(s0)
   14904:	00600613          	li	a2,6
   14908:	00001517          	auipc	a0,0x1
   1490c:	a7c50513          	addi	a0,a0,-1412 # 15384 <__sf_fake_stdout+0x2c>
   14910:	00140913          	addi	s2,s0,1
   14914:	02b10423          	sb	a1,40(sp)
   14918:	72c000ef          	jal	ra,15044 <memchr>
   1491c:	08050e63          	beqz	a0,149b8 <_vfiprintf_r+0x3a8>
   14920:	fffeb797          	auipc	a5,0xfffeb
   14924:	6e078793          	addi	a5,a5,1760 # 0 <__stack_size-0x10000>
   14928:	04079863          	bnez	a5,14978 <_vfiprintf_r+0x368>
   1492c:	01012703          	lw	a4,16(sp)
   14930:	00c12783          	lw	a5,12(sp)
   14934:	10077713          	andi	a4,a4,256
   14938:	02070863          	beqz	a4,14968 <_vfiprintf_r+0x358>
   1493c:	00478793          	addi	a5,a5,4
   14940:	00f12623          	sw	a5,12(sp)
   14944:	02412783          	lw	a5,36(sp)
   14948:	014787b3          	add	a5,a5,s4
   1494c:	02f12223          	sw	a5,36(sp)
   14950:	d61ff06f          	j	146b0 <_vfiprintf_r+0xa0>
   14954:	036787b3          	mul	a5,a5,s6
   14958:	00100693          	li	a3,1
   1495c:	00058413          	mv	s0,a1
   14960:	00e787b3          	add	a5,a5,a4
   14964:	f4dff06f          	j	148b0 <_vfiprintf_r+0x2a0>
   14968:	00778793          	addi	a5,a5,7
   1496c:	ff87f793          	andi	a5,a5,-8
   14970:	00878793          	addi	a5,a5,8
   14974:	fcdff06f          	j	14940 <_vfiprintf_r+0x330>
   14978:	00c10713          	addi	a4,sp,12
   1497c:	00000697          	auipc	a3,0x0
   14980:	c2068693          	addi	a3,a3,-992 # 1459c <__sfputs_r>
   14984:	00048613          	mv	a2,s1
   14988:	01010593          	addi	a1,sp,16
   1498c:	00098513          	mv	a0,s3
   14990:	00000097          	auipc	ra,0x0
   14994:	000000e7          	jalr	zero # 0 <__stack_size-0x10000>
   14998:	fff00793          	li	a5,-1
   1499c:	00050a13          	mv	s4,a0
   149a0:	faf512e3          	bne	a0,a5,14944 <_vfiprintf_r+0x334>
   149a4:	00c4d783          	lhu	a5,12(s1)
   149a8:	0407f793          	andi	a5,a5,64
   149ac:	e0079ce3          	bnez	a5,147c4 <_vfiprintf_r+0x1b4>
   149b0:	02412503          	lw	a0,36(sp)
   149b4:	e15ff06f          	j	147c8 <_vfiprintf_r+0x1b8>
   149b8:	00c10713          	addi	a4,sp,12
   149bc:	00000697          	auipc	a3,0x0
   149c0:	be068693          	addi	a3,a3,-1056 # 1459c <__sfputs_r>
   149c4:	00048613          	mv	a2,s1
   149c8:	01010593          	addi	a1,sp,16
   149cc:	00098513          	mv	a0,s3
   149d0:	1b8000ef          	jal	ra,14b88 <_printf_i>
   149d4:	fc5ff06f          	j	14998 <_vfiprintf_r+0x388>

000149d8 <_printf_common>:
_printf_common():
   149d8:	fd010113          	addi	sp,sp,-48
   149dc:	01512a23          	sw	s5,20(sp)
   149e0:	0105a783          	lw	a5,16(a1)
   149e4:	00070a93          	mv	s5,a4
   149e8:	0085a703          	lw	a4,8(a1)
   149ec:	02812423          	sw	s0,40(sp)
   149f0:	02912223          	sw	s1,36(sp)
   149f4:	01312e23          	sw	s3,28(sp)
   149f8:	01412c23          	sw	s4,24(sp)
   149fc:	02112623          	sw	ra,44(sp)
   14a00:	03212023          	sw	s2,32(sp)
   14a04:	01612823          	sw	s6,16(sp)
   14a08:	01712623          	sw	s7,12(sp)
   14a0c:	00050993          	mv	s3,a0
   14a10:	00058413          	mv	s0,a1
   14a14:	00060493          	mv	s1,a2
   14a18:	00068a13          	mv	s4,a3
   14a1c:	00e7d463          	bge	a5,a4,14a24 <_printf_common+0x4c>
   14a20:	00070793          	mv	a5,a4
   14a24:	00f4a023          	sw	a5,0(s1)
   14a28:	04344703          	lbu	a4,67(s0)
   14a2c:	00070663          	beqz	a4,14a38 <_printf_common+0x60>
   14a30:	00178793          	addi	a5,a5,1
   14a34:	00f4a023          	sw	a5,0(s1)
   14a38:	00042783          	lw	a5,0(s0)
   14a3c:	0207f793          	andi	a5,a5,32
   14a40:	00078863          	beqz	a5,14a50 <_printf_common+0x78>
   14a44:	0004a783          	lw	a5,0(s1)
   14a48:	00278793          	addi	a5,a5,2
   14a4c:	00f4a023          	sw	a5,0(s1)
   14a50:	00042903          	lw	s2,0(s0)
   14a54:	00697913          	andi	s2,s2,6
   14a58:	00091e63          	bnez	s2,14a74 <_printf_common+0x9c>
   14a5c:	01940b13          	addi	s6,s0,25
   14a60:	fff00b93          	li	s7,-1
   14a64:	00c42783          	lw	a5,12(s0)
   14a68:	0004a703          	lw	a4,0(s1)
   14a6c:	40e787b3          	sub	a5,a5,a4
   14a70:	08f94263          	blt	s2,a5,14af4 <_printf_common+0x11c>
   14a74:	00042783          	lw	a5,0(s0)
   14a78:	04344683          	lbu	a3,67(s0)
   14a7c:	0207f793          	andi	a5,a5,32
   14a80:	00d036b3          	snez	a3,a3
   14a84:	0c079063          	bnez	a5,14b44 <_printf_common+0x16c>
   14a88:	04340613          	addi	a2,s0,67
   14a8c:	000a0593          	mv	a1,s4
   14a90:	00098513          	mv	a0,s3
   14a94:	000a80e7          	jalr	s5
   14a98:	fff00793          	li	a5,-1
   14a9c:	06f50863          	beq	a0,a5,14b0c <_printf_common+0x134>
   14aa0:	00042783          	lw	a5,0(s0)
   14aa4:	00400613          	li	a2,4
   14aa8:	0004a703          	lw	a4,0(s1)
   14aac:	0067f793          	andi	a5,a5,6
   14ab0:	00c42683          	lw	a3,12(s0)
   14ab4:	00000493          	li	s1,0
   14ab8:	00c79863          	bne	a5,a2,14ac8 <_printf_common+0xf0>
   14abc:	40e684b3          	sub	s1,a3,a4
   14ac0:	0004d463          	bgez	s1,14ac8 <_printf_common+0xf0>
   14ac4:	00000493          	li	s1,0
   14ac8:	00842783          	lw	a5,8(s0)
   14acc:	01042703          	lw	a4,16(s0)
   14ad0:	00f75663          	bge	a4,a5,14adc <_printf_common+0x104>
   14ad4:	40e787b3          	sub	a5,a5,a4
   14ad8:	00f484b3          	add	s1,s1,a5
   14adc:	00000913          	li	s2,0
   14ae0:	01a40413          	addi	s0,s0,26
   14ae4:	fff00b13          	li	s6,-1
   14ae8:	09249063          	bne	s1,s2,14b68 <_printf_common+0x190>
   14aec:	00000513          	li	a0,0
   14af0:	0200006f          	j	14b10 <_printf_common+0x138>
   14af4:	00100693          	li	a3,1
   14af8:	000b0613          	mv	a2,s6
   14afc:	000a0593          	mv	a1,s4
   14b00:	00098513          	mv	a0,s3
   14b04:	000a80e7          	jalr	s5
   14b08:	03751a63          	bne	a0,s7,14b3c <_printf_common+0x164>
   14b0c:	fff00513          	li	a0,-1
   14b10:	02c12083          	lw	ra,44(sp)
   14b14:	02812403          	lw	s0,40(sp)
   14b18:	02412483          	lw	s1,36(sp)
   14b1c:	02012903          	lw	s2,32(sp)
   14b20:	01c12983          	lw	s3,28(sp)
   14b24:	01812a03          	lw	s4,24(sp)
   14b28:	01412a83          	lw	s5,20(sp)
   14b2c:	01012b03          	lw	s6,16(sp)
   14b30:	00c12b83          	lw	s7,12(sp)
   14b34:	03010113          	addi	sp,sp,48
   14b38:	00008067          	ret
   14b3c:	00190913          	addi	s2,s2,1
   14b40:	f25ff06f          	j	14a64 <_printf_common+0x8c>
   14b44:	00d40733          	add	a4,s0,a3
   14b48:	03000613          	li	a2,48
   14b4c:	04c701a3          	sb	a2,67(a4)
   14b50:	04544703          	lbu	a4,69(s0)
   14b54:	00168793          	addi	a5,a3,1
   14b58:	00f407b3          	add	a5,s0,a5
   14b5c:	00268693          	addi	a3,a3,2
   14b60:	04e781a3          	sb	a4,67(a5)
   14b64:	f25ff06f          	j	14a88 <_printf_common+0xb0>
   14b68:	00100693          	li	a3,1
   14b6c:	00040613          	mv	a2,s0
   14b70:	000a0593          	mv	a1,s4
   14b74:	00098513          	mv	a0,s3
   14b78:	000a80e7          	jalr	s5
   14b7c:	f96508e3          	beq	a0,s6,14b0c <_printf_common+0x134>
   14b80:	00190913          	addi	s2,s2,1
   14b84:	f65ff06f          	j	14ae8 <_printf_common+0x110>

00014b88 <_printf_i>:
_printf_i():
   14b88:	fd010113          	addi	sp,sp,-48
   14b8c:	02812423          	sw	s0,40(sp)
   14b90:	02912223          	sw	s1,36(sp)
   14b94:	03212023          	sw	s2,32(sp)
   14b98:	01312e23          	sw	s3,28(sp)
   14b9c:	02112623          	sw	ra,44(sp)
   14ba0:	01412c23          	sw	s4,24(sp)
   14ba4:	01512a23          	sw	s5,20(sp)
   14ba8:	01612823          	sw	s6,16(sp)
   14bac:	00068993          	mv	s3,a3
   14bb0:	0185c683          	lbu	a3,24(a1)
   14bb4:	06e00793          	li	a5,110
   14bb8:	00060913          	mv	s2,a2
   14bbc:	00050493          	mv	s1,a0
   14bc0:	00058413          	mv	s0,a1
   14bc4:	04358613          	addi	a2,a1,67
   14bc8:	28f68863          	beq	a3,a5,14e58 <_printf_i+0x2d0>
   14bcc:	06d7ea63          	bltu	a5,a3,14c40 <_printf_i+0xb8>
   14bd0:	06300793          	li	a5,99
   14bd4:	0af68e63          	beq	a3,a5,14c90 <_printf_i+0x108>
   14bd8:	00d7ee63          	bltu	a5,a3,14bf4 <_printf_i+0x6c>
   14bdc:	2a068c63          	beqz	a3,14e94 <_printf_i+0x30c>
   14be0:	05800793          	li	a5,88
   14be4:	1ef68a63          	beq	a3,a5,14dd8 <_printf_i+0x250>
   14be8:	04240a93          	addi	s5,s0,66
   14bec:	04d40123          	sb	a3,66(s0)
   14bf0:	0b80006f          	j	14ca8 <_printf_i+0x120>
   14bf4:	06400793          	li	a5,100
   14bf8:	00f68663          	beq	a3,a5,14c04 <_printf_i+0x7c>
   14bfc:	06900793          	li	a5,105
   14c00:	fef694e3          	bne	a3,a5,14be8 <_printf_i+0x60>
   14c04:	00042783          	lw	a5,0(s0)
   14c08:	00072503          	lw	a0,0(a4)
   14c0c:	0807f693          	andi	a3,a5,128
   14c10:	00450593          	addi	a1,a0,4
   14c14:	08068e63          	beqz	a3,14cb0 <_printf_i+0x128>
   14c18:	00052783          	lw	a5,0(a0)
   14c1c:	00b72023          	sw	a1,0(a4)
   14c20:	0007d863          	bgez	a5,14c30 <_printf_i+0xa8>
   14c24:	02d00713          	li	a4,45
   14c28:	40f007b3          	neg	a5,a5
   14c2c:	04e401a3          	sb	a4,67(s0)
   14c30:	00000697          	auipc	a3,0x0
   14c34:	75c68693          	addi	a3,a3,1884 # 1538c <__sf_fake_stdout+0x34>
   14c38:	00a00713          	li	a4,10
   14c3c:	0d80006f          	j	14d14 <_printf_i+0x18c>
   14c40:	07300793          	li	a5,115
   14c44:	24f68e63          	beq	a3,a5,14ea0 <_printf_i+0x318>
   14c48:	02d7e263          	bltu	a5,a3,14c6c <_printf_i+0xe4>
   14c4c:	06f00793          	li	a5,111
   14c50:	06f68e63          	beq	a3,a5,14ccc <_printf_i+0x144>
   14c54:	07000793          	li	a5,112
   14c58:	f8f698e3          	bne	a3,a5,14be8 <_printf_i+0x60>
   14c5c:	0005a783          	lw	a5,0(a1)
   14c60:	0207e793          	ori	a5,a5,32
   14c64:	00f5a023          	sw	a5,0(a1)
   14c68:	0140006f          	j	14c7c <_printf_i+0xf4>
   14c6c:	07500793          	li	a5,117
   14c70:	04f68e63          	beq	a3,a5,14ccc <_printf_i+0x144>
   14c74:	07800793          	li	a5,120
   14c78:	f6f698e3          	bne	a3,a5,14be8 <_printf_i+0x60>
   14c7c:	07800793          	li	a5,120
   14c80:	04f402a3          	sb	a5,69(s0)
   14c84:	00000697          	auipc	a3,0x0
   14c88:	71c68693          	addi	a3,a3,1820 # 153a0 <__sf_fake_stdout+0x48>
   14c8c:	1580006f          	j	14de4 <_printf_i+0x25c>
   14c90:	00072783          	lw	a5,0(a4)
   14c94:	04258a93          	addi	s5,a1,66
   14c98:	00478693          	addi	a3,a5,4
   14c9c:	0007a783          	lw	a5,0(a5)
   14ca0:	00d72023          	sw	a3,0(a4)
   14ca4:	04f58123          	sb	a5,66(a1)
   14ca8:	00100793          	li	a5,1
   14cac:	2240006f          	j	14ed0 <_printf_i+0x348>
   14cb0:	0407f693          	andi	a3,a5,64
   14cb4:	00052783          	lw	a5,0(a0)
   14cb8:	00b72023          	sw	a1,0(a4)
   14cbc:	f60682e3          	beqz	a3,14c20 <_printf_i+0x98>
   14cc0:	01079793          	slli	a5,a5,0x10
   14cc4:	4107d793          	srai	a5,a5,0x10
   14cc8:	f59ff06f          	j	14c20 <_printf_i+0x98>
   14ccc:	00042583          	lw	a1,0(s0)
   14cd0:	00072783          	lw	a5,0(a4)
   14cd4:	0805f813          	andi	a6,a1,128
   14cd8:	00478513          	addi	a0,a5,4
   14cdc:	00080863          	beqz	a6,14cec <_printf_i+0x164>
   14ce0:	00a72023          	sw	a0,0(a4)
   14ce4:	0007a783          	lw	a5,0(a5)
   14ce8:	0140006f          	j	14cfc <_printf_i+0x174>
   14cec:	0405f593          	andi	a1,a1,64
   14cf0:	00a72023          	sw	a0,0(a4)
   14cf4:	fe0588e3          	beqz	a1,14ce4 <_printf_i+0x15c>
   14cf8:	0007d783          	lhu	a5,0(a5)
   14cfc:	06f00713          	li	a4,111
   14d00:	14e68063          	beq	a3,a4,14e40 <_printf_i+0x2b8>
   14d04:	00000697          	auipc	a3,0x0
   14d08:	68868693          	addi	a3,a3,1672 # 1538c <__sf_fake_stdout+0x34>
   14d0c:	00a00713          	li	a4,10
   14d10:	040401a3          	sb	zero,67(s0)
   14d14:	00442583          	lw	a1,4(s0)
   14d18:	00b42423          	sw	a1,8(s0)
   14d1c:	0005c863          	bltz	a1,14d2c <_printf_i+0x1a4>
   14d20:	00042503          	lw	a0,0(s0)
   14d24:	ffb57513          	andi	a0,a0,-5
   14d28:	00a42023          	sw	a0,0(s0)
   14d2c:	00079663          	bnez	a5,14d38 <_printf_i+0x1b0>
   14d30:	00060a93          	mv	s5,a2
   14d34:	02058263          	beqz	a1,14d58 <_printf_i+0x1d0>
   14d38:	00060a93          	mv	s5,a2
   14d3c:	02e7f5b3          	remu	a1,a5,a4
   14d40:	fffa8a93          	addi	s5,s5,-1
   14d44:	00b685b3          	add	a1,a3,a1
   14d48:	0005c583          	lbu	a1,0(a1)
   14d4c:	00ba8023          	sb	a1,0(s5)
   14d50:	02e7d5b3          	divu	a1,a5,a4
   14d54:	0ee7fe63          	bgeu	a5,a4,14e50 <_printf_i+0x2c8>
   14d58:	00800793          	li	a5,8
   14d5c:	02f71463          	bne	a4,a5,14d84 <_printf_i+0x1fc>
   14d60:	00042783          	lw	a5,0(s0)
   14d64:	0017f793          	andi	a5,a5,1
   14d68:	00078e63          	beqz	a5,14d84 <_printf_i+0x1fc>
   14d6c:	00442703          	lw	a4,4(s0)
   14d70:	01042783          	lw	a5,16(s0)
   14d74:	00e7c863          	blt	a5,a4,14d84 <_printf_i+0x1fc>
   14d78:	03000793          	li	a5,48
   14d7c:	fefa8fa3          	sb	a5,-1(s5)
   14d80:	fffa8a93          	addi	s5,s5,-1
   14d84:	41560633          	sub	a2,a2,s5
   14d88:	00c42823          	sw	a2,16(s0)
   14d8c:	00098713          	mv	a4,s3
   14d90:	00090693          	mv	a3,s2
   14d94:	00c10613          	addi	a2,sp,12
   14d98:	00040593          	mv	a1,s0
   14d9c:	00048513          	mv	a0,s1
   14da0:	c39ff0ef          	jal	ra,149d8 <_printf_common>
   14da4:	fff00a13          	li	s4,-1
   14da8:	13451a63          	bne	a0,s4,14edc <_printf_i+0x354>
   14dac:	fff00513          	li	a0,-1
   14db0:	02c12083          	lw	ra,44(sp)
   14db4:	02812403          	lw	s0,40(sp)
   14db8:	02412483          	lw	s1,36(sp)
   14dbc:	02012903          	lw	s2,32(sp)
   14dc0:	01c12983          	lw	s3,28(sp)
   14dc4:	01812a03          	lw	s4,24(sp)
   14dc8:	01412a83          	lw	s5,20(sp)
   14dcc:	01012b03          	lw	s6,16(sp)
   14dd0:	03010113          	addi	sp,sp,48
   14dd4:	00008067          	ret
   14dd8:	04d582a3          	sb	a3,69(a1)
   14ddc:	00000697          	auipc	a3,0x0
   14de0:	5b068693          	addi	a3,a3,1456 # 1538c <__sf_fake_stdout+0x34>
   14de4:	00042583          	lw	a1,0(s0)
   14de8:	00072503          	lw	a0,0(a4)
   14dec:	0805f813          	andi	a6,a1,128
   14df0:	00052783          	lw	a5,0(a0)
   14df4:	00450513          	addi	a0,a0,4
   14df8:	02080863          	beqz	a6,14e28 <_printf_i+0x2a0>
   14dfc:	00a72023          	sw	a0,0(a4)
   14e00:	0015f713          	andi	a4,a1,1
   14e04:	00070663          	beqz	a4,14e10 <_printf_i+0x288>
   14e08:	0205e593          	ori	a1,a1,32
   14e0c:	00b42023          	sw	a1,0(s0)
   14e10:	01000713          	li	a4,16
   14e14:	ee079ee3          	bnez	a5,14d10 <_printf_i+0x188>
   14e18:	00042583          	lw	a1,0(s0)
   14e1c:	fdf5f593          	andi	a1,a1,-33
   14e20:	00b42023          	sw	a1,0(s0)
   14e24:	eedff06f          	j	14d10 <_printf_i+0x188>
   14e28:	0405f813          	andi	a6,a1,64
   14e2c:	00a72023          	sw	a0,0(a4)
   14e30:	fc0808e3          	beqz	a6,14e00 <_printf_i+0x278>
   14e34:	01079793          	slli	a5,a5,0x10
   14e38:	0107d793          	srli	a5,a5,0x10
   14e3c:	fc5ff06f          	j	14e00 <_printf_i+0x278>
   14e40:	00000697          	auipc	a3,0x0
   14e44:	54c68693          	addi	a3,a3,1356 # 1538c <__sf_fake_stdout+0x34>
   14e48:	00800713          	li	a4,8
   14e4c:	ec5ff06f          	j	14d10 <_printf_i+0x188>
   14e50:	00058793          	mv	a5,a1
   14e54:	ee9ff06f          	j	14d3c <_printf_i+0x1b4>
   14e58:	0005a683          	lw	a3,0(a1)
   14e5c:	00072783          	lw	a5,0(a4)
   14e60:	0145a583          	lw	a1,20(a1)
   14e64:	0806f813          	andi	a6,a3,128
   14e68:	00478513          	addi	a0,a5,4
   14e6c:	00080a63          	beqz	a6,14e80 <_printf_i+0x2f8>
   14e70:	00a72023          	sw	a0,0(a4)
   14e74:	0007a783          	lw	a5,0(a5)
   14e78:	00b7a023          	sw	a1,0(a5)
   14e7c:	0180006f          	j	14e94 <_printf_i+0x30c>
   14e80:	00a72023          	sw	a0,0(a4)
   14e84:	0406f693          	andi	a3,a3,64
   14e88:	0007a783          	lw	a5,0(a5)
   14e8c:	fe0686e3          	beqz	a3,14e78 <_printf_i+0x2f0>
   14e90:	00b79023          	sh	a1,0(a5)
   14e94:	00042823          	sw	zero,16(s0)
   14e98:	00060a93          	mv	s5,a2
   14e9c:	ef1ff06f          	j	14d8c <_printf_i+0x204>
   14ea0:	00072783          	lw	a5,0(a4)
   14ea4:	0045a603          	lw	a2,4(a1)
   14ea8:	00000593          	li	a1,0
   14eac:	00478693          	addi	a3,a5,4
   14eb0:	00d72023          	sw	a3,0(a4)
   14eb4:	0007aa83          	lw	s5,0(a5)
   14eb8:	000a8513          	mv	a0,s5
   14ebc:	188000ef          	jal	ra,15044 <memchr>
   14ec0:	00050663          	beqz	a0,14ecc <_printf_i+0x344>
   14ec4:	41550533          	sub	a0,a0,s5
   14ec8:	00a42223          	sw	a0,4(s0)
   14ecc:	00442783          	lw	a5,4(s0)
   14ed0:	00f42823          	sw	a5,16(s0)
   14ed4:	040401a3          	sb	zero,67(s0)
   14ed8:	eb5ff06f          	j	14d8c <_printf_i+0x204>
   14edc:	01042683          	lw	a3,16(s0)
   14ee0:	000a8613          	mv	a2,s5
   14ee4:	00090593          	mv	a1,s2
   14ee8:	00048513          	mv	a0,s1
   14eec:	000980e7          	jalr	s3
   14ef0:	eb450ee3          	beq	a0,s4,14dac <_printf_i+0x224>
   14ef4:	00042783          	lw	a5,0(s0)
   14ef8:	0027f793          	andi	a5,a5,2
   14efc:	04079463          	bnez	a5,14f44 <_printf_i+0x3bc>
   14f00:	00c12783          	lw	a5,12(sp)
   14f04:	00c42503          	lw	a0,12(s0)
   14f08:	eaf554e3          	bge	a0,a5,14db0 <_printf_i+0x228>
   14f0c:	00078513          	mv	a0,a5
   14f10:	ea1ff06f          	j	14db0 <_printf_i+0x228>
   14f14:	00100693          	li	a3,1
   14f18:	000a8613          	mv	a2,s5
   14f1c:	00090593          	mv	a1,s2
   14f20:	00048513          	mv	a0,s1
   14f24:	000980e7          	jalr	s3
   14f28:	e96502e3          	beq	a0,s6,14dac <_printf_i+0x224>
   14f2c:	001a0a13          	addi	s4,s4,1
   14f30:	00c42783          	lw	a5,12(s0)
   14f34:	00c12703          	lw	a4,12(sp)
   14f38:	40e787b3          	sub	a5,a5,a4
   14f3c:	fcfa4ce3          	blt	s4,a5,14f14 <_printf_i+0x38c>
   14f40:	fc1ff06f          	j	14f00 <_printf_i+0x378>
   14f44:	00000a13          	li	s4,0
   14f48:	01940a93          	addi	s5,s0,25
   14f4c:	fff00b13          	li	s6,-1
   14f50:	fe1ff06f          	j	14f30 <_printf_i+0x3a8>

00014f54 <_read_r>:
_read_r():
   14f54:	ff010113          	addi	sp,sp,-16
   14f58:	00812423          	sw	s0,8(sp)
   14f5c:	00050413          	mv	s0,a0
   14f60:	00058513          	mv	a0,a1
   14f64:	00060593          	mv	a1,a2
   14f68:	00068613          	mv	a2,a3
   14f6c:	00000797          	auipc	a5,0x0
   14f70:	6807aa23          	sw	zero,1684(a5) # 15600 <errno>
   14f74:	00112623          	sw	ra,12(sp)
   14f78:	ae4fb0ef          	jal	ra,1025c <_read>
   14f7c:	fff00793          	li	a5,-1
   14f80:	00f51c63          	bne	a0,a5,14f98 <_read_r+0x44>
   14f84:	00000797          	auipc	a5,0x0
   14f88:	67c78793          	addi	a5,a5,1660 # 15600 <errno>
   14f8c:	0007a783          	lw	a5,0(a5)
   14f90:	00078463          	beqz	a5,14f98 <_read_r+0x44>
   14f94:	00f42023          	sw	a5,0(s0)
   14f98:	00c12083          	lw	ra,12(sp)
   14f9c:	00812403          	lw	s0,8(sp)
   14fa0:	01010113          	addi	sp,sp,16
   14fa4:	00008067          	ret

00014fa8 <_fstat_r>:
_fstat_r():
   14fa8:	ff010113          	addi	sp,sp,-16
   14fac:	00812423          	sw	s0,8(sp)
   14fb0:	00050413          	mv	s0,a0
   14fb4:	00058513          	mv	a0,a1
   14fb8:	00060593          	mv	a1,a2
   14fbc:	00000797          	auipc	a5,0x0
   14fc0:	6407a223          	sw	zero,1604(a5) # 15600 <errno>
   14fc4:	00112623          	sw	ra,12(sp)
   14fc8:	958fb0ef          	jal	ra,10120 <_fstat>
   14fcc:	fff00793          	li	a5,-1
   14fd0:	00f51c63          	bne	a0,a5,14fe8 <_fstat_r+0x40>
   14fd4:	00000797          	auipc	a5,0x0
   14fd8:	62c78793          	addi	a5,a5,1580 # 15600 <errno>
   14fdc:	0007a783          	lw	a5,0(a5)
   14fe0:	00078463          	beqz	a5,14fe8 <_fstat_r+0x40>
   14fe4:	00f42023          	sw	a5,0(s0)
   14fe8:	00c12083          	lw	ra,12(sp)
   14fec:	00812403          	lw	s0,8(sp)
   14ff0:	01010113          	addi	sp,sp,16
   14ff4:	00008067          	ret

00014ff8 <_isatty_r>:
_isatty_r():
   14ff8:	ff010113          	addi	sp,sp,-16
   14ffc:	00812423          	sw	s0,8(sp)
   15000:	00050413          	mv	s0,a0
   15004:	00058513          	mv	a0,a1
   15008:	00000797          	auipc	a5,0x0
   1500c:	5e07ac23          	sw	zero,1528(a5) # 15600 <errno>
   15010:	00112623          	sw	ra,12(sp)
   15014:	968fb0ef          	jal	ra,1017c <_isatty>
   15018:	fff00793          	li	a5,-1
   1501c:	00f51c63          	bne	a0,a5,15034 <_isatty_r+0x3c>
   15020:	00000797          	auipc	a5,0x0
   15024:	5e078793          	addi	a5,a5,1504 # 15600 <errno>
   15028:	0007a783          	lw	a5,0(a5)
   1502c:	00078463          	beqz	a5,15034 <_isatty_r+0x3c>
   15030:	00f42023          	sw	a5,0(s0)
   15034:	00c12083          	lw	ra,12(sp)
   15038:	00812403          	lw	s0,8(sp)
   1503c:	01010113          	addi	sp,sp,16
   15040:	00008067          	ret

00015044 <memchr>:
memchr():
   15044:	0ff5f593          	andi	a1,a1,255
   15048:	00c50633          	add	a2,a0,a2
   1504c:	00c51663          	bne	a0,a2,15058 <memchr+0x14>
   15050:	00000513          	li	a0,0
   15054:	00008067          	ret
   15058:	00054783          	lbu	a5,0(a0)
   1505c:	feb78ce3          	beq	a5,a1,15054 <memchr+0x10>
   15060:	00150513          	addi	a0,a0,1
   15064:	fe9ff06f          	j	1504c <memchr+0x8>
